
compiled_code/kernel8.elf:     file format elf64-littleaarch64


Disassembly of section .text:

0000000000080000 <__text_start>:
   80000:	58007c42 	ldr	x2, 80f88 <VectorTable+0x788>
   80004:	58007c63 	ldr	x3, 80f90 <VectorTable+0x790>
   80008:	58007c84 	ldr	x4, 80f98 <VectorTable+0x798>
   8000c:	9100005f 	mov	sp, x2
   80010:	d51c4103 	msr	sp_el1, x3
   80014:	d5184104 	msr	sp_el0, x4
   80018:	d2867fe0 	mov	x0, #0x33ff                	// #13311
   8001c:	d51c1140 	msr	cptr_el2, x0
   80020:	d51c117f 	msr	hstr_el2, xzr
   80024:	d2a00600 	mov	x0, #0x300000              	// #3145728
   80028:	d5181040 	msr	cpacr_el1, x0
   8002c:	d2b00000 	mov	x0, #0x80000000            	// #2147483648
   80030:	d51c1100 	msr	hcr_el2, x0
   80034:	d2810000 	mov	x0, #0x800                 	// #2048
   80038:	f2a61a00 	movk	x0, #0x30d0, lsl #16
   8003c:	b27e0000 	orr	x0, x0, #0x4
   80040:	b2740000 	orr	x0, x0, #0x1000
   80044:	d5181000 	msr	sctlr_el1, x0
   80048:	d28078a0 	mov	x0, #0x3c5                 	// #965
   8004c:	d51c4000 	msr	spsr_el2, x0
   80050:	10000060 	adr	x0, 8005c <exit_el1>
   80054:	d51c4020 	msr	elr_el2, x0
   80058:	d69f03e0 	eret

000000000008005c <exit_el1>:
   8005c:	58007a20 	ldr	x0, 80fa0 <VectorTable+0x7a0>
   80060:	d518c000 	msr	vbar_el1, x0
   80064:	58007a23 	ldr	x3, 80fa8 <VectorTable+0x7a8>
   80068:	58007a40 	ldr	x0, 80fb0 <VectorTable+0x7b0>
   8006c:	eb03001f 	cmp	x0, x3
   80070:	54000082 	b.cs	80080 <.bss_cleared>  // b.hs, b.nlast

0000000000080074 <.bss_zero_loop>:
   80074:	b800441f 	str	wzr, [x0], #4
   80078:	eb00007f 	cmp	x3, x0
   8007c:	54ffffc8 	b.hi	80074 <.bss_zero_loop>  // b.pmore

0000000000080080 <.bss_cleared>:
   80080:	14001db8 	b	87760 <main>

0000000000080084 <hang>:
   80084:	14000000 	b	80084 <hang>

0000000000080088 <irq_handler_stub>:
   80088:	d69f03e0 	eret

000000000008008c <fiq_handler_stub>:
   8008c:	d69f03e0 	eret
   80090:	d503201f 	nop
   80094:	d503201f 	nop
   80098:	d503201f 	nop
   8009c:	d503201f 	nop
   800a0:	d503201f 	nop
   800a4:	d503201f 	nop
   800a8:	d503201f 	nop
   800ac:	d503201f 	nop
   800b0:	d503201f 	nop
   800b4:	d503201f 	nop
   800b8:	d503201f 	nop
   800bc:	d503201f 	nop
   800c0:	d503201f 	nop
   800c4:	d503201f 	nop
   800c8:	d503201f 	nop
   800cc:	d503201f 	nop
   800d0:	d503201f 	nop
   800d4:	d503201f 	nop
   800d8:	d503201f 	nop
   800dc:	d503201f 	nop
   800e0:	d503201f 	nop
   800e4:	d503201f 	nop
   800e8:	d503201f 	nop
   800ec:	d503201f 	nop
   800f0:	d503201f 	nop
   800f4:	d503201f 	nop
   800f8:	d503201f 	nop
   800fc:	d503201f 	nop
   80100:	d503201f 	nop
   80104:	d503201f 	nop
   80108:	d503201f 	nop
   8010c:	d503201f 	nop
   80110:	d503201f 	nop
   80114:	d503201f 	nop
   80118:	d503201f 	nop
   8011c:	d503201f 	nop
   80120:	d503201f 	nop
   80124:	d503201f 	nop
   80128:	d503201f 	nop
   8012c:	d503201f 	nop
   80130:	d503201f 	nop
   80134:	d503201f 	nop
   80138:	d503201f 	nop
   8013c:	d503201f 	nop
   80140:	d503201f 	nop
   80144:	d503201f 	nop
   80148:	d503201f 	nop
   8014c:	d503201f 	nop
   80150:	d503201f 	nop
   80154:	d503201f 	nop
   80158:	d503201f 	nop
   8015c:	d503201f 	nop
   80160:	d503201f 	nop
   80164:	d503201f 	nop
   80168:	d503201f 	nop
   8016c:	d503201f 	nop
   80170:	d503201f 	nop
   80174:	d503201f 	nop
   80178:	d503201f 	nop
   8017c:	d503201f 	nop
   80180:	d503201f 	nop
   80184:	d503201f 	nop
   80188:	d503201f 	nop
   8018c:	d503201f 	nop
   80190:	d503201f 	nop
   80194:	d503201f 	nop
   80198:	d503201f 	nop
   8019c:	d503201f 	nop
   801a0:	d503201f 	nop
   801a4:	d503201f 	nop
   801a8:	d503201f 	nop
   801ac:	d503201f 	nop
   801b0:	d503201f 	nop
   801b4:	d503201f 	nop
   801b8:	d503201f 	nop
   801bc:	d503201f 	nop
   801c0:	d503201f 	nop
   801c4:	d503201f 	nop
   801c8:	d503201f 	nop
   801cc:	d503201f 	nop
   801d0:	d503201f 	nop
   801d4:	d503201f 	nop
   801d8:	d503201f 	nop
   801dc:	d503201f 	nop
   801e0:	d503201f 	nop
   801e4:	d503201f 	nop
   801e8:	d503201f 	nop
   801ec:	d503201f 	nop
   801f0:	d503201f 	nop
   801f4:	d503201f 	nop
   801f8:	d503201f 	nop
   801fc:	d503201f 	nop
   80200:	d503201f 	nop
   80204:	d503201f 	nop
   80208:	d503201f 	nop
   8020c:	d503201f 	nop
   80210:	d503201f 	nop
   80214:	d503201f 	nop
   80218:	d503201f 	nop
   8021c:	d503201f 	nop
   80220:	d503201f 	nop
   80224:	d503201f 	nop
   80228:	d503201f 	nop
   8022c:	d503201f 	nop
   80230:	d503201f 	nop
   80234:	d503201f 	nop
   80238:	d503201f 	nop
   8023c:	d503201f 	nop
   80240:	d503201f 	nop
   80244:	d503201f 	nop
   80248:	d503201f 	nop
   8024c:	d503201f 	nop
   80250:	d503201f 	nop
   80254:	d503201f 	nop
   80258:	d503201f 	nop
   8025c:	d503201f 	nop
   80260:	d503201f 	nop
   80264:	d503201f 	nop
   80268:	d503201f 	nop
   8026c:	d503201f 	nop
   80270:	d503201f 	nop
   80274:	d503201f 	nop
   80278:	d503201f 	nop
   8027c:	d503201f 	nop
   80280:	d503201f 	nop
   80284:	d503201f 	nop
   80288:	d503201f 	nop
   8028c:	d503201f 	nop
   80290:	d503201f 	nop
   80294:	d503201f 	nop
   80298:	d503201f 	nop
   8029c:	d503201f 	nop
   802a0:	d503201f 	nop
   802a4:	d503201f 	nop
   802a8:	d503201f 	nop
   802ac:	d503201f 	nop
   802b0:	d503201f 	nop
   802b4:	d503201f 	nop
   802b8:	d503201f 	nop
   802bc:	d503201f 	nop
   802c0:	d503201f 	nop
   802c4:	d503201f 	nop
   802c8:	d503201f 	nop
   802cc:	d503201f 	nop
   802d0:	d503201f 	nop
   802d4:	d503201f 	nop
   802d8:	d503201f 	nop
   802dc:	d503201f 	nop
   802e0:	d503201f 	nop
   802e4:	d503201f 	nop
   802e8:	d503201f 	nop
   802ec:	d503201f 	nop
   802f0:	d503201f 	nop
   802f4:	d503201f 	nop
   802f8:	d503201f 	nop
   802fc:	d503201f 	nop
   80300:	d503201f 	nop
   80304:	d503201f 	nop
   80308:	d503201f 	nop
   8030c:	d503201f 	nop
   80310:	d503201f 	nop
   80314:	d503201f 	nop
   80318:	d503201f 	nop
   8031c:	d503201f 	nop
   80320:	d503201f 	nop
   80324:	d503201f 	nop
   80328:	d503201f 	nop
   8032c:	d503201f 	nop
   80330:	d503201f 	nop
   80334:	d503201f 	nop
   80338:	d503201f 	nop
   8033c:	d503201f 	nop
   80340:	d503201f 	nop
   80344:	d503201f 	nop
   80348:	d503201f 	nop
   8034c:	d503201f 	nop
   80350:	d503201f 	nop
   80354:	d503201f 	nop
   80358:	d503201f 	nop
   8035c:	d503201f 	nop
   80360:	d503201f 	nop
   80364:	d503201f 	nop
   80368:	d503201f 	nop
   8036c:	d503201f 	nop
   80370:	d503201f 	nop
   80374:	d503201f 	nop
   80378:	d503201f 	nop
   8037c:	d503201f 	nop
   80380:	d503201f 	nop
   80384:	d503201f 	nop
   80388:	d503201f 	nop
   8038c:	d503201f 	nop
   80390:	d503201f 	nop
   80394:	d503201f 	nop
   80398:	d503201f 	nop
   8039c:	d503201f 	nop
   803a0:	d503201f 	nop
   803a4:	d503201f 	nop
   803a8:	d503201f 	nop
   803ac:	d503201f 	nop
   803b0:	d503201f 	nop
   803b4:	d503201f 	nop
   803b8:	d503201f 	nop
   803bc:	d503201f 	nop
   803c0:	d503201f 	nop
   803c4:	d503201f 	nop
   803c8:	d503201f 	nop
   803cc:	d503201f 	nop
   803d0:	d503201f 	nop
   803d4:	d503201f 	nop
   803d8:	d503201f 	nop
   803dc:	d503201f 	nop
   803e0:	d503201f 	nop
   803e4:	d503201f 	nop
   803e8:	d503201f 	nop
   803ec:	d503201f 	nop
   803f0:	d503201f 	nop
   803f4:	d503201f 	nop
   803f8:	d503201f 	nop
   803fc:	d503201f 	nop
   80400:	d503201f 	nop
   80404:	d503201f 	nop
   80408:	d503201f 	nop
   8040c:	d503201f 	nop
   80410:	d503201f 	nop
   80414:	d503201f 	nop
   80418:	d503201f 	nop
   8041c:	d503201f 	nop
   80420:	d503201f 	nop
   80424:	d503201f 	nop
   80428:	d503201f 	nop
   8042c:	d503201f 	nop
   80430:	d503201f 	nop
   80434:	d503201f 	nop
   80438:	d503201f 	nop
   8043c:	d503201f 	nop
   80440:	d503201f 	nop
   80444:	d503201f 	nop
   80448:	d503201f 	nop
   8044c:	d503201f 	nop
   80450:	d503201f 	nop
   80454:	d503201f 	nop
   80458:	d503201f 	nop
   8045c:	d503201f 	nop
   80460:	d503201f 	nop
   80464:	d503201f 	nop
   80468:	d503201f 	nop
   8046c:	d503201f 	nop
   80470:	d503201f 	nop
   80474:	d503201f 	nop
   80478:	d503201f 	nop
   8047c:	d503201f 	nop
   80480:	d503201f 	nop
   80484:	d503201f 	nop
   80488:	d503201f 	nop
   8048c:	d503201f 	nop
   80490:	d503201f 	nop
   80494:	d503201f 	nop
   80498:	d503201f 	nop
   8049c:	d503201f 	nop
   804a0:	d503201f 	nop
   804a4:	d503201f 	nop
   804a8:	d503201f 	nop
   804ac:	d503201f 	nop
   804b0:	d503201f 	nop
   804b4:	d503201f 	nop
   804b8:	d503201f 	nop
   804bc:	d503201f 	nop
   804c0:	d503201f 	nop
   804c4:	d503201f 	nop
   804c8:	d503201f 	nop
   804cc:	d503201f 	nop
   804d0:	d503201f 	nop
   804d4:	d503201f 	nop
   804d8:	d503201f 	nop
   804dc:	d503201f 	nop
   804e0:	d503201f 	nop
   804e4:	d503201f 	nop
   804e8:	d503201f 	nop
   804ec:	d503201f 	nop
   804f0:	d503201f 	nop
   804f4:	d503201f 	nop
   804f8:	d503201f 	nop
   804fc:	d503201f 	nop
   80500:	d503201f 	nop
   80504:	d503201f 	nop
   80508:	d503201f 	nop
   8050c:	d503201f 	nop
   80510:	d503201f 	nop
   80514:	d503201f 	nop
   80518:	d503201f 	nop
   8051c:	d503201f 	nop
   80520:	d503201f 	nop
   80524:	d503201f 	nop
   80528:	d503201f 	nop
   8052c:	d503201f 	nop
   80530:	d503201f 	nop
   80534:	d503201f 	nop
   80538:	d503201f 	nop
   8053c:	d503201f 	nop
   80540:	d503201f 	nop
   80544:	d503201f 	nop
   80548:	d503201f 	nop
   8054c:	d503201f 	nop
   80550:	d503201f 	nop
   80554:	d503201f 	nop
   80558:	d503201f 	nop
   8055c:	d503201f 	nop
   80560:	d503201f 	nop
   80564:	d503201f 	nop
   80568:	d503201f 	nop
   8056c:	d503201f 	nop
   80570:	d503201f 	nop
   80574:	d503201f 	nop
   80578:	d503201f 	nop
   8057c:	d503201f 	nop
   80580:	d503201f 	nop
   80584:	d503201f 	nop
   80588:	d503201f 	nop
   8058c:	d503201f 	nop
   80590:	d503201f 	nop
   80594:	d503201f 	nop
   80598:	d503201f 	nop
   8059c:	d503201f 	nop
   805a0:	d503201f 	nop
   805a4:	d503201f 	nop
   805a8:	d503201f 	nop
   805ac:	d503201f 	nop
   805b0:	d503201f 	nop
   805b4:	d503201f 	nop
   805b8:	d503201f 	nop
   805bc:	d503201f 	nop
   805c0:	d503201f 	nop
   805c4:	d503201f 	nop
   805c8:	d503201f 	nop
   805cc:	d503201f 	nop
   805d0:	d503201f 	nop
   805d4:	d503201f 	nop
   805d8:	d503201f 	nop
   805dc:	d503201f 	nop
   805e0:	d503201f 	nop
   805e4:	d503201f 	nop
   805e8:	d503201f 	nop
   805ec:	d503201f 	nop
   805f0:	d503201f 	nop
   805f4:	d503201f 	nop
   805f8:	d503201f 	nop
   805fc:	d503201f 	nop
   80600:	d503201f 	nop
   80604:	d503201f 	nop
   80608:	d503201f 	nop
   8060c:	d503201f 	nop
   80610:	d503201f 	nop
   80614:	d503201f 	nop
   80618:	d503201f 	nop
   8061c:	d503201f 	nop
   80620:	d503201f 	nop
   80624:	d503201f 	nop
   80628:	d503201f 	nop
   8062c:	d503201f 	nop
   80630:	d503201f 	nop
   80634:	d503201f 	nop
   80638:	d503201f 	nop
   8063c:	d503201f 	nop
   80640:	d503201f 	nop
   80644:	d503201f 	nop
   80648:	d503201f 	nop
   8064c:	d503201f 	nop
   80650:	d503201f 	nop
   80654:	d503201f 	nop
   80658:	d503201f 	nop
   8065c:	d503201f 	nop
   80660:	d503201f 	nop
   80664:	d503201f 	nop
   80668:	d503201f 	nop
   8066c:	d503201f 	nop
   80670:	d503201f 	nop
   80674:	d503201f 	nop
   80678:	d503201f 	nop
   8067c:	d503201f 	nop
   80680:	d503201f 	nop
   80684:	d503201f 	nop
   80688:	d503201f 	nop
   8068c:	d503201f 	nop
   80690:	d503201f 	nop
   80694:	d503201f 	nop
   80698:	d503201f 	nop
   8069c:	d503201f 	nop
   806a0:	d503201f 	nop
   806a4:	d503201f 	nop
   806a8:	d503201f 	nop
   806ac:	d503201f 	nop
   806b0:	d503201f 	nop
   806b4:	d503201f 	nop
   806b8:	d503201f 	nop
   806bc:	d503201f 	nop
   806c0:	d503201f 	nop
   806c4:	d503201f 	nop
   806c8:	d503201f 	nop
   806cc:	d503201f 	nop
   806d0:	d503201f 	nop
   806d4:	d503201f 	nop
   806d8:	d503201f 	nop
   806dc:	d503201f 	nop
   806e0:	d503201f 	nop
   806e4:	d503201f 	nop
   806e8:	d503201f 	nop
   806ec:	d503201f 	nop
   806f0:	d503201f 	nop
   806f4:	d503201f 	nop
   806f8:	d503201f 	nop
   806fc:	d503201f 	nop
   80700:	d503201f 	nop
   80704:	d503201f 	nop
   80708:	d503201f 	nop
   8070c:	d503201f 	nop
   80710:	d503201f 	nop
   80714:	d503201f 	nop
   80718:	d503201f 	nop
   8071c:	d503201f 	nop
   80720:	d503201f 	nop
   80724:	d503201f 	nop
   80728:	d503201f 	nop
   8072c:	d503201f 	nop
   80730:	d503201f 	nop
   80734:	d503201f 	nop
   80738:	d503201f 	nop
   8073c:	d503201f 	nop
   80740:	d503201f 	nop
   80744:	d503201f 	nop
   80748:	d503201f 	nop
   8074c:	d503201f 	nop
   80750:	d503201f 	nop
   80754:	d503201f 	nop
   80758:	d503201f 	nop
   8075c:	d503201f 	nop
   80760:	d503201f 	nop
   80764:	d503201f 	nop
   80768:	d503201f 	nop
   8076c:	d503201f 	nop
   80770:	d503201f 	nop
   80774:	d503201f 	nop
   80778:	d503201f 	nop
   8077c:	d503201f 	nop
   80780:	d503201f 	nop
   80784:	d503201f 	nop
   80788:	d503201f 	nop
   8078c:	d503201f 	nop
   80790:	d503201f 	nop
   80794:	d503201f 	nop
   80798:	d503201f 	nop
   8079c:	d503201f 	nop
   807a0:	d503201f 	nop
   807a4:	d503201f 	nop
   807a8:	d503201f 	nop
   807ac:	d503201f 	nop
   807b0:	d503201f 	nop
   807b4:	d503201f 	nop
   807b8:	d503201f 	nop
   807bc:	d503201f 	nop
   807c0:	d503201f 	nop
   807c4:	d503201f 	nop
   807c8:	d503201f 	nop
   807cc:	d503201f 	nop
   807d0:	d503201f 	nop
   807d4:	d503201f 	nop
   807d8:	d503201f 	nop
   807dc:	d503201f 	nop
   807e0:	d503201f 	nop
   807e4:	d503201f 	nop
   807e8:	d503201f 	nop
   807ec:	d503201f 	nop
   807f0:	d503201f 	nop
   807f4:	d503201f 	nop
   807f8:	d503201f 	nop
   807fc:	d503201f 	nop

0000000000080800 <VectorTable>:
   80800:	17fffe00 	b	80000 <__text_start>
   80804:	d503201f 	nop
   80808:	d503201f 	nop
   8080c:	d503201f 	nop
   80810:	d503201f 	nop
   80814:	d503201f 	nop
   80818:	d503201f 	nop
   8081c:	d503201f 	nop
   80820:	d503201f 	nop
   80824:	d503201f 	nop
   80828:	d503201f 	nop
   8082c:	d503201f 	nop
   80830:	d503201f 	nop
   80834:	d503201f 	nop
   80838:	d503201f 	nop
   8083c:	d503201f 	nop
   80840:	d503201f 	nop
   80844:	d503201f 	nop
   80848:	d503201f 	nop
   8084c:	d503201f 	nop
   80850:	d503201f 	nop
   80854:	d503201f 	nop
   80858:	d503201f 	nop
   8085c:	d503201f 	nop
   80860:	d503201f 	nop
   80864:	d503201f 	nop
   80868:	d503201f 	nop
   8086c:	d503201f 	nop
   80870:	d503201f 	nop
   80874:	d503201f 	nop
   80878:	d503201f 	nop
   8087c:	d503201f 	nop
   80880:	17fffe01 	b	80084 <hang>
   80884:	d503201f 	nop
   80888:	d503201f 	nop
   8088c:	d503201f 	nop
   80890:	d503201f 	nop
   80894:	d503201f 	nop
   80898:	d503201f 	nop
   8089c:	d503201f 	nop
   808a0:	d503201f 	nop
   808a4:	d503201f 	nop
   808a8:	d503201f 	nop
   808ac:	d503201f 	nop
   808b0:	d503201f 	nop
   808b4:	d503201f 	nop
   808b8:	d503201f 	nop
   808bc:	d503201f 	nop
   808c0:	d503201f 	nop
   808c4:	d503201f 	nop
   808c8:	d503201f 	nop
   808cc:	d503201f 	nop
   808d0:	d503201f 	nop
   808d4:	d503201f 	nop
   808d8:	d503201f 	nop
   808dc:	d503201f 	nop
   808e0:	d503201f 	nop
   808e4:	d503201f 	nop
   808e8:	d503201f 	nop
   808ec:	d503201f 	nop
   808f0:	d503201f 	nop
   808f4:	d503201f 	nop
   808f8:	d503201f 	nop
   808fc:	d503201f 	nop
   80900:	17fffde1 	b	80084 <hang>
   80904:	d503201f 	nop
   80908:	d503201f 	nop
   8090c:	d503201f 	nop
   80910:	d503201f 	nop
   80914:	d503201f 	nop
   80918:	d503201f 	nop
   8091c:	d503201f 	nop
   80920:	d503201f 	nop
   80924:	d503201f 	nop
   80928:	d503201f 	nop
   8092c:	d503201f 	nop
   80930:	d503201f 	nop
   80934:	d503201f 	nop
   80938:	d503201f 	nop
   8093c:	d503201f 	nop
   80940:	d503201f 	nop
   80944:	d503201f 	nop
   80948:	d503201f 	nop
   8094c:	d503201f 	nop
   80950:	d503201f 	nop
   80954:	d503201f 	nop
   80958:	d503201f 	nop
   8095c:	d503201f 	nop
   80960:	d503201f 	nop
   80964:	d503201f 	nop
   80968:	d503201f 	nop
   8096c:	d503201f 	nop
   80970:	d503201f 	nop
   80974:	d503201f 	nop
   80978:	d503201f 	nop
   8097c:	d503201f 	nop
   80980:	17fffdc1 	b	80084 <hang>
   80984:	d503201f 	nop
   80988:	d503201f 	nop
   8098c:	d503201f 	nop
   80990:	d503201f 	nop
   80994:	d503201f 	nop
   80998:	d503201f 	nop
   8099c:	d503201f 	nop
   809a0:	d503201f 	nop
   809a4:	d503201f 	nop
   809a8:	d503201f 	nop
   809ac:	d503201f 	nop
   809b0:	d503201f 	nop
   809b4:	d503201f 	nop
   809b8:	d503201f 	nop
   809bc:	d503201f 	nop
   809c0:	d503201f 	nop
   809c4:	d503201f 	nop
   809c8:	d503201f 	nop
   809cc:	d503201f 	nop
   809d0:	d503201f 	nop
   809d4:	d503201f 	nop
   809d8:	d503201f 	nop
   809dc:	d503201f 	nop
   809e0:	d503201f 	nop
   809e4:	d503201f 	nop
   809e8:	d503201f 	nop
   809ec:	d503201f 	nop
   809f0:	d503201f 	nop
   809f4:	d503201f 	nop
   809f8:	d503201f 	nop
   809fc:	d503201f 	nop
   80a00:	17fffda1 	b	80084 <hang>
   80a04:	d503201f 	nop
   80a08:	d503201f 	nop
   80a0c:	d503201f 	nop
   80a10:	d503201f 	nop
   80a14:	d503201f 	nop
   80a18:	d503201f 	nop
   80a1c:	d503201f 	nop
   80a20:	d503201f 	nop
   80a24:	d503201f 	nop
   80a28:	d503201f 	nop
   80a2c:	d503201f 	nop
   80a30:	d503201f 	nop
   80a34:	d503201f 	nop
   80a38:	d503201f 	nop
   80a3c:	d503201f 	nop
   80a40:	d503201f 	nop
   80a44:	d503201f 	nop
   80a48:	d503201f 	nop
   80a4c:	d503201f 	nop
   80a50:	d503201f 	nop
   80a54:	d503201f 	nop
   80a58:	d503201f 	nop
   80a5c:	d503201f 	nop
   80a60:	d503201f 	nop
   80a64:	d503201f 	nop
   80a68:	d503201f 	nop
   80a6c:	d503201f 	nop
   80a70:	d503201f 	nop
   80a74:	d503201f 	nop
   80a78:	d503201f 	nop
   80a7c:	d503201f 	nop
   80a80:	17fffd82 	b	80088 <irq_handler_stub>
   80a84:	d503201f 	nop
   80a88:	d503201f 	nop
   80a8c:	d503201f 	nop
   80a90:	d503201f 	nop
   80a94:	d503201f 	nop
   80a98:	d503201f 	nop
   80a9c:	d503201f 	nop
   80aa0:	d503201f 	nop
   80aa4:	d503201f 	nop
   80aa8:	d503201f 	nop
   80aac:	d503201f 	nop
   80ab0:	d503201f 	nop
   80ab4:	d503201f 	nop
   80ab8:	d503201f 	nop
   80abc:	d503201f 	nop
   80ac0:	d503201f 	nop
   80ac4:	d503201f 	nop
   80ac8:	d503201f 	nop
   80acc:	d503201f 	nop
   80ad0:	d503201f 	nop
   80ad4:	d503201f 	nop
   80ad8:	d503201f 	nop
   80adc:	d503201f 	nop
   80ae0:	d503201f 	nop
   80ae4:	d503201f 	nop
   80ae8:	d503201f 	nop
   80aec:	d503201f 	nop
   80af0:	d503201f 	nop
   80af4:	d503201f 	nop
   80af8:	d503201f 	nop
   80afc:	d503201f 	nop
   80b00:	17fffd63 	b	8008c <fiq_handler_stub>
   80b04:	d503201f 	nop
   80b08:	d503201f 	nop
   80b0c:	d503201f 	nop
   80b10:	d503201f 	nop
   80b14:	d503201f 	nop
   80b18:	d503201f 	nop
   80b1c:	d503201f 	nop
   80b20:	d503201f 	nop
   80b24:	d503201f 	nop
   80b28:	d503201f 	nop
   80b2c:	d503201f 	nop
   80b30:	d503201f 	nop
   80b34:	d503201f 	nop
   80b38:	d503201f 	nop
   80b3c:	d503201f 	nop
   80b40:	d503201f 	nop
   80b44:	d503201f 	nop
   80b48:	d503201f 	nop
   80b4c:	d503201f 	nop
   80b50:	d503201f 	nop
   80b54:	d503201f 	nop
   80b58:	d503201f 	nop
   80b5c:	d503201f 	nop
   80b60:	d503201f 	nop
   80b64:	d503201f 	nop
   80b68:	d503201f 	nop
   80b6c:	d503201f 	nop
   80b70:	d503201f 	nop
   80b74:	d503201f 	nop
   80b78:	d503201f 	nop
   80b7c:	d503201f 	nop
   80b80:	17fffd41 	b	80084 <hang>
   80b84:	d503201f 	nop
   80b88:	d503201f 	nop
   80b8c:	d503201f 	nop
   80b90:	d503201f 	nop
   80b94:	d503201f 	nop
   80b98:	d503201f 	nop
   80b9c:	d503201f 	nop
   80ba0:	d503201f 	nop
   80ba4:	d503201f 	nop
   80ba8:	d503201f 	nop
   80bac:	d503201f 	nop
   80bb0:	d503201f 	nop
   80bb4:	d503201f 	nop
   80bb8:	d503201f 	nop
   80bbc:	d503201f 	nop
   80bc0:	d503201f 	nop
   80bc4:	d503201f 	nop
   80bc8:	d503201f 	nop
   80bcc:	d503201f 	nop
   80bd0:	d503201f 	nop
   80bd4:	d503201f 	nop
   80bd8:	d503201f 	nop
   80bdc:	d503201f 	nop
   80be0:	d503201f 	nop
   80be4:	d503201f 	nop
   80be8:	d503201f 	nop
   80bec:	d503201f 	nop
   80bf0:	d503201f 	nop
   80bf4:	d503201f 	nop
   80bf8:	d503201f 	nop
   80bfc:	d503201f 	nop
   80c00:	17fffd21 	b	80084 <hang>
   80c04:	d503201f 	nop
   80c08:	d503201f 	nop
   80c0c:	d503201f 	nop
   80c10:	d503201f 	nop
   80c14:	d503201f 	nop
   80c18:	d503201f 	nop
   80c1c:	d503201f 	nop
   80c20:	d503201f 	nop
   80c24:	d503201f 	nop
   80c28:	d503201f 	nop
   80c2c:	d503201f 	nop
   80c30:	d503201f 	nop
   80c34:	d503201f 	nop
   80c38:	d503201f 	nop
   80c3c:	d503201f 	nop
   80c40:	d503201f 	nop
   80c44:	d503201f 	nop
   80c48:	d503201f 	nop
   80c4c:	d503201f 	nop
   80c50:	d503201f 	nop
   80c54:	d503201f 	nop
   80c58:	d503201f 	nop
   80c5c:	d503201f 	nop
   80c60:	d503201f 	nop
   80c64:	d503201f 	nop
   80c68:	d503201f 	nop
   80c6c:	d503201f 	nop
   80c70:	d503201f 	nop
   80c74:	d503201f 	nop
   80c78:	d503201f 	nop
   80c7c:	d503201f 	nop
   80c80:	17fffd01 	b	80084 <hang>
   80c84:	d503201f 	nop
   80c88:	d503201f 	nop
   80c8c:	d503201f 	nop
   80c90:	d503201f 	nop
   80c94:	d503201f 	nop
   80c98:	d503201f 	nop
   80c9c:	d503201f 	nop
   80ca0:	d503201f 	nop
   80ca4:	d503201f 	nop
   80ca8:	d503201f 	nop
   80cac:	d503201f 	nop
   80cb0:	d503201f 	nop
   80cb4:	d503201f 	nop
   80cb8:	d503201f 	nop
   80cbc:	d503201f 	nop
   80cc0:	d503201f 	nop
   80cc4:	d503201f 	nop
   80cc8:	d503201f 	nop
   80ccc:	d503201f 	nop
   80cd0:	d503201f 	nop
   80cd4:	d503201f 	nop
   80cd8:	d503201f 	nop
   80cdc:	d503201f 	nop
   80ce0:	d503201f 	nop
   80ce4:	d503201f 	nop
   80ce8:	d503201f 	nop
   80cec:	d503201f 	nop
   80cf0:	d503201f 	nop
   80cf4:	d503201f 	nop
   80cf8:	d503201f 	nop
   80cfc:	d503201f 	nop
   80d00:	17fffce1 	b	80084 <hang>
   80d04:	d503201f 	nop
   80d08:	d503201f 	nop
   80d0c:	d503201f 	nop
   80d10:	d503201f 	nop
   80d14:	d503201f 	nop
   80d18:	d503201f 	nop
   80d1c:	d503201f 	nop
   80d20:	d503201f 	nop
   80d24:	d503201f 	nop
   80d28:	d503201f 	nop
   80d2c:	d503201f 	nop
   80d30:	d503201f 	nop
   80d34:	d503201f 	nop
   80d38:	d503201f 	nop
   80d3c:	d503201f 	nop
   80d40:	d503201f 	nop
   80d44:	d503201f 	nop
   80d48:	d503201f 	nop
   80d4c:	d503201f 	nop
   80d50:	d503201f 	nop
   80d54:	d503201f 	nop
   80d58:	d503201f 	nop
   80d5c:	d503201f 	nop
   80d60:	d503201f 	nop
   80d64:	d503201f 	nop
   80d68:	d503201f 	nop
   80d6c:	d503201f 	nop
   80d70:	d503201f 	nop
   80d74:	d503201f 	nop
   80d78:	d503201f 	nop
   80d7c:	d503201f 	nop
   80d80:	17fffcc1 	b	80084 <hang>
   80d84:	d503201f 	nop
   80d88:	d503201f 	nop
   80d8c:	d503201f 	nop
   80d90:	d503201f 	nop
   80d94:	d503201f 	nop
   80d98:	d503201f 	nop
   80d9c:	d503201f 	nop
   80da0:	d503201f 	nop
   80da4:	d503201f 	nop
   80da8:	d503201f 	nop
   80dac:	d503201f 	nop
   80db0:	d503201f 	nop
   80db4:	d503201f 	nop
   80db8:	d503201f 	nop
   80dbc:	d503201f 	nop
   80dc0:	d503201f 	nop
   80dc4:	d503201f 	nop
   80dc8:	d503201f 	nop
   80dcc:	d503201f 	nop
   80dd0:	d503201f 	nop
   80dd4:	d503201f 	nop
   80dd8:	d503201f 	nop
   80ddc:	d503201f 	nop
   80de0:	d503201f 	nop
   80de4:	d503201f 	nop
   80de8:	d503201f 	nop
   80dec:	d503201f 	nop
   80df0:	d503201f 	nop
   80df4:	d503201f 	nop
   80df8:	d503201f 	nop
   80dfc:	d503201f 	nop
   80e00:	17fffca1 	b	80084 <hang>
   80e04:	d503201f 	nop
   80e08:	d503201f 	nop
   80e0c:	d503201f 	nop
   80e10:	d503201f 	nop
   80e14:	d503201f 	nop
   80e18:	d503201f 	nop
   80e1c:	d503201f 	nop
   80e20:	d503201f 	nop
   80e24:	d503201f 	nop
   80e28:	d503201f 	nop
   80e2c:	d503201f 	nop
   80e30:	d503201f 	nop
   80e34:	d503201f 	nop
   80e38:	d503201f 	nop
   80e3c:	d503201f 	nop
   80e40:	d503201f 	nop
   80e44:	d503201f 	nop
   80e48:	d503201f 	nop
   80e4c:	d503201f 	nop
   80e50:	d503201f 	nop
   80e54:	d503201f 	nop
   80e58:	d503201f 	nop
   80e5c:	d503201f 	nop
   80e60:	d503201f 	nop
   80e64:	d503201f 	nop
   80e68:	d503201f 	nop
   80e6c:	d503201f 	nop
   80e70:	d503201f 	nop
   80e74:	d503201f 	nop
   80e78:	d503201f 	nop
   80e7c:	d503201f 	nop
   80e80:	17fffc81 	b	80084 <hang>
   80e84:	d503201f 	nop
   80e88:	d503201f 	nop
   80e8c:	d503201f 	nop
   80e90:	d503201f 	nop
   80e94:	d503201f 	nop
   80e98:	d503201f 	nop
   80e9c:	d503201f 	nop
   80ea0:	d503201f 	nop
   80ea4:	d503201f 	nop
   80ea8:	d503201f 	nop
   80eac:	d503201f 	nop
   80eb0:	d503201f 	nop
   80eb4:	d503201f 	nop
   80eb8:	d503201f 	nop
   80ebc:	d503201f 	nop
   80ec0:	d503201f 	nop
   80ec4:	d503201f 	nop
   80ec8:	d503201f 	nop
   80ecc:	d503201f 	nop
   80ed0:	d503201f 	nop
   80ed4:	d503201f 	nop
   80ed8:	d503201f 	nop
   80edc:	d503201f 	nop
   80ee0:	d503201f 	nop
   80ee4:	d503201f 	nop
   80ee8:	d503201f 	nop
   80eec:	d503201f 	nop
   80ef0:	d503201f 	nop
   80ef4:	d503201f 	nop
   80ef8:	d503201f 	nop
   80efc:	d503201f 	nop
   80f00:	17fffc61 	b	80084 <hang>
   80f04:	d503201f 	nop
   80f08:	d503201f 	nop
   80f0c:	d503201f 	nop
   80f10:	d503201f 	nop
   80f14:	d503201f 	nop
   80f18:	d503201f 	nop
   80f1c:	d503201f 	nop
   80f20:	d503201f 	nop
   80f24:	d503201f 	nop
   80f28:	d503201f 	nop
   80f2c:	d503201f 	nop
   80f30:	d503201f 	nop
   80f34:	d503201f 	nop
   80f38:	d503201f 	nop
   80f3c:	d503201f 	nop
   80f40:	d503201f 	nop
   80f44:	d503201f 	nop
   80f48:	d503201f 	nop
   80f4c:	d503201f 	nop
   80f50:	d503201f 	nop
   80f54:	d503201f 	nop
   80f58:	d503201f 	nop
   80f5c:	d503201f 	nop
   80f60:	d503201f 	nop
   80f64:	d503201f 	nop
   80f68:	d503201f 	nop
   80f6c:	d503201f 	nop
   80f70:	d503201f 	nop
   80f74:	d503201f 	nop
   80f78:	d503201f 	nop
   80f7c:	d503201f 	nop
   80f80:	17fffc41 	b	80084 <hang>
   80f84:	00000000 	.inst	0x00000000 ; undefined
   80f88:	00092ff0 	.word	0x00092ff0
   80f8c:	00000000 	.word	0x00000000
   80f90:	00092df0 	.word	0x00092df0
   80f94:	00000000 	.word	0x00000000
   80f98:	0008edf0 	.word	0x0008edf0
   80f9c:	00000000 	.word	0x00000000
   80fa0:	00080800 	.word	0x00080800
   80fa4:	00000000 	.word	0x00000000
   80fa8:	0008ebe9 	.word	0x0008ebe9
   80fac:	00000000 	.word	0x00000000
   80fb0:	0008df40 	.word	0x0008df40
	...

0000000000080fc0 <_Z17GPUaddrToARMaddr3j>:
   80fc0:	12007400 	and	w0, w0, #0x3fffffff
   80fc4:	d65f03c0 	ret
   80fc8:	d503201f 	nop
   80fcc:	d503201f 	nop

0000000000080fd0 <__cxa_pure_virtual>:
   80fd0:	14000000 	b	80fd0 <__cxa_pure_virtual>
   80fd4:	d503201f 	nop
   80fd8:	d503201f 	nop
   80fdc:	d503201f 	nop

0000000000080fe0 <__aeabi_atexit>:
   80fe0:	14000000 	b	80fe0 <__aeabi_atexit>
   80fe4:	d503201f 	nop
   80fe8:	d503201f 	nop
   80fec:	d503201f 	nop

0000000000080ff0 <__dso_handle>:
   80ff0:	14000000 	b	80ff0 <__dso_handle>
   80ff4:	d503201f 	nop
   80ff8:	d503201f 	nop
   80ffc:	d503201f 	nop

0000000000081000 <__cxa_guard_acquire>:
   81000:	d65f03c0 	ret
   81004:	d503201f 	nop
   81008:	d503201f 	nop
   8100c:	d503201f 	nop

0000000000081010 <__cxa_guard_release>:
   81010:	d65f03c0 	ret
   81014:	d503201f 	nop
   81018:	d503201f 	nop
   8101c:	d503201f 	nop

0000000000081020 <__cxa_atexit>:
   81020:	d65f03c0 	ret
	...

0000000000081030 <_ZN9rectangleC1E6vectorILj2EjES1_>:
   81030:	29401025 	ldp	w5, w4, [x1]
   81034:	29001005 	stp	w5, w4, [x0]
   81038:	29400443 	ldp	w3, w1, [x2]
   8103c:	29010403 	stp	w3, w1, [x0, #8]
   81040:	d65f03c0 	ret
   81044:	d503201f 	nop
   81048:	d503201f 	nop
   8104c:	d503201f 	nop

0000000000081050 <_ZN9rectangleC1Ev>:
   81050:	d65f03c0 	ret
   81054:	d503201f 	nop
   81058:	d503201f 	nop
   8105c:	d503201f 	nop

0000000000081060 <_ZN9rectangleD1Ev>:
   81060:	d65f03c0 	ret
	...

0000000000081070 <_ZN10buddy_heap18get_matching_orderEm>:
   81070:	d2800801 	mov	x1, #0x40                  	// #64
   81074:	91001c00 	add	x0, x0, #0x7
   81078:	dac01000 	clz	x0, x0
   8107c:	cb000020 	sub	x0, x1, x0
   81080:	d65f03c0 	ret
   81084:	d503201f 	nop
   81088:	d503201f 	nop
   8108c:	d503201f 	nop

0000000000081090 <_ZN10buddy_heap7is_freeEPNS_5blockEm>:
   81090:	90000064 	adrp	x4, 8d000 <_ZN4font9monospaceE+0x5760>
   81094:	913d0085 	add	x5, x4, #0xf40
   81098:	f86178a3 	ldr	x3, [x5, x1, lsl #3]
   8109c:	b40001c3 	cbz	x3, 810d4 <_ZN10buddy_heap7is_freeEPNS_5blockEm+0x44>
   810a0:	a9401862 	ldp	x2, x6, [x3]
   810a4:	eb0000df 	cmp	x6, x0
   810a8:	540002c0 	b.eq	81100 <_ZN10buddy_heap7is_freeEPNS_5blockEm+0x70>  // b.none
   810ac:	b4000142 	cbz	x2, 810d4 <_ZN10buddy_heap7is_freeEPNS_5blockEm+0x44>
   810b0:	f9400441 	ldr	x1, [x2, #8]
   810b4:	eb01001f 	cmp	x0, x1
   810b8:	540000a1 	b.ne	810cc <_ZN10buddy_heap7is_freeEPNS_5blockEm+0x3c>  // b.any
   810bc:	14000008 	b	810dc <_ZN10buddy_heap7is_freeEPNS_5blockEm+0x4c>
   810c0:	f9400441 	ldr	x1, [x2, #8]
   810c4:	eb00003f 	cmp	x1, x0
   810c8:	540000a0 	b.eq	810dc <_ZN10buddy_heap7is_freeEPNS_5blockEm+0x4c>  // b.none
   810cc:	f9400042 	ldr	x2, [x2]
   810d0:	b5ffff82 	cbnz	x2, 810c0 <_ZN10buddy_heap7is_freeEPNS_5blockEm+0x30>
   810d4:	52800000 	mov	w0, #0x0                   	// #0
   810d8:	d65f03c0 	ret
   810dc:	913d0084 	add	x4, x4, #0xf40
   810e0:	f9400040 	ldr	x0, [x2]
   810e4:	f9403481 	ldr	x1, [x4, #104]
   810e8:	f9000060 	str	x0, [x3]
   810ec:	52800020 	mov	w0, #0x1                   	// #1
   810f0:	d1002023 	sub	x3, x1, #0x8
   810f4:	f9003483 	str	x3, [x4, #104]
   810f8:	f81f8022 	stur	x2, [x1, #-8]
   810fc:	d65f03c0 	ret
   81100:	f94034a4 	ldr	x4, [x5, #104]
   81104:	52800020 	mov	w0, #0x1                   	// #1
   81108:	f82178a2 	str	x2, [x5, x1, lsl #3]
   8110c:	d1002081 	sub	x1, x4, #0x8
   81110:	f90034a1 	str	x1, [x5, #104]
   81114:	f81f8083 	stur	x3, [x4, #-8]
   81118:	d65f03c0 	ret
   8111c:	d503201f 	nop

0000000000081120 <_ZN10buddy_heapC1Ev>:
   81120:	d65f03c0 	ret
   81124:	d503201f 	nop
   81128:	d503201f 	nop
   8112c:	d503201f 	nop

0000000000081130 <_ZN10buddy_heapD1Ev>:
   81130:	d65f03c0 	ret
   81134:	d503201f 	nop
   81138:	d503201f 	nop
   8113c:	d503201f 	nop

0000000000081140 <_ZN10buddy_heap10initializeEv>:
   81140:	90000063 	adrp	x3, 8d000 <_ZN4font9monospaceE+0x5760>
   81144:	913d0062 	add	x2, x3, #0xf40
   81148:	9101e041 	add	x1, x2, #0x78
   8114c:	91220040 	add	x0, x2, #0x880
   81150:	9c000401 	ldr	q1, 811d0 <_ZN10buddy_heap10initializeEv+0x90>
   81154:	4e080c22 	dup	v2.2d, x1
   81158:	9c000443 	ldr	q3, 811e0 <_ZN10buddy_heap10initializeEv+0xa0>
   8115c:	91320041 	add	x1, x2, #0xc80
   81160:	d2a00a04 	mov	x4, #0x500000              	// #5242880
   81164:	f9003844 	str	x4, [x2, #112]
   81168:	4f445420 	shl	v0.2d, v1.2d, #4
   8116c:	4ee38421 	add	v1.2d, v1.2d, v3.2d
   81170:	4ee28400 	add	v0.2d, v0.2d, v2.2d
   81174:	3c810400 	str	q0, [x0], #16
   81178:	eb01001f 	cmp	x0, x1
   8117c:	54ffff61 	b.ne	81168 <_ZN10buddy_heap10initializeEv+0x28>  // b.any
   81180:	913d0060 	add	x0, x3, #0xf40
   81184:	d2a00a02 	mov	x2, #0x500000              	// #5242880
   81188:	4f000400 	movi	v0.4s, #0x0
   8118c:	91222005 	add	x5, x0, #0x888
   81190:	d2800184 	mov	x4, #0xc                   	// #12
   81194:	f9444001 	ldr	x1, [x0, #2176]
   81198:	f900201f 	str	xzr, [x0, #64]
   8119c:	f9003405 	str	x5, [x0, #104]
   811a0:	3d83d060 	str	q0, [x3, #3904]
   811a4:	3d800400 	str	q0, [x0, #16]
   811a8:	3d800800 	str	q0, [x0, #32]
   811ac:	3d800c00 	str	q0, [x0, #48]
   811b0:	f9000422 	str	x2, [x1, #8]
   811b4:	f9000044 	str	x4, [x2]
   811b8:	f9003001 	str	x1, [x0, #96]
   811bc:	f900003f 	str	xzr, [x1]
   811c0:	d65f03c0 	ret
   811c4:	d503201f 	nop
   811c8:	d503201f 	nop
   811cc:	d503201f 	nop
	...
   811d8:	00000001 	.word	0x00000001
   811dc:	00000000 	.word	0x00000000
   811e0:	00000002 	.word	0x00000002
   811e4:	00000000 	.word	0x00000000
   811e8:	00000002 	.word	0x00000002
   811ec:	00000000 	.word	0x00000000

00000000000811f0 <_ZN10buddy_heap8allocateEm>:
   811f0:	91001c00 	add	x0, x0, #0x7
   811f4:	d2800801 	mov	x1, #0x40                  	// #64
   811f8:	dac01000 	clz	x0, x0
   811fc:	cb000021 	sub	x1, x1, x0
   81200:	d2800080 	mov	x0, #0x4                   	// #4
   81204:	eb00003f 	cmp	x1, x0
   81208:	90000065 	adrp	x5, 8d000 <_ZN4font9monospaceE+0x5760>
   8120c:	913d00a2 	add	x2, x5, #0xf40
   81210:	9a802021 	csel	x1, x1, x0, cs  // cs = hs, nlast
   81214:	f8617843 	ldr	x3, [x2, x1, lsl #3]
   81218:	b4000123 	cbz	x3, 8123c <_ZN10buddy_heap8allocateEm+0x4c>
   8121c:	a9400065 	ldp	x5, x0, [x3]
   81220:	f8217845 	str	x5, [x2, x1, lsl #3]
   81224:	f9403444 	ldr	x4, [x2, #104]
   81228:	91002000 	add	x0, x0, #0x8
   8122c:	d1002081 	sub	x1, x4, #0x8
   81230:	f9003441 	str	x1, [x2, #104]
   81234:	f81f8083 	stur	x3, [x4, #-8]
   81238:	d65f03c0 	ret
   8123c:	91000420 	add	x0, x1, #0x1
   81240:	f100301f 	cmp	x0, #0xc
   81244:	540007a8 	b.hi	81338 <_ZN10buddy_heap8allocateEm+0x148>  // b.pmore
   81248:	f8607843 	ldr	x3, [x2, x0, lsl #3]
   8124c:	b50023c3 	cbnz	x3, 816c4 <_ZN10buddy_heap8allocateEm+0x4d4>
   81250:	91000823 	add	x3, x1, #0x2
   81254:	f100347f 	cmp	x3, #0xd
   81258:	54000700 	b.eq	81338 <_ZN10buddy_heap8allocateEm+0x148>  // b.none
   8125c:	f8637844 	ldr	x4, [x2, x3, lsl #3]
   81260:	b5000744 	cbnz	x4, 81348 <_ZN10buddy_heap8allocateEm+0x158>
   81264:	91000c23 	add	x3, x1, #0x3
   81268:	f100347f 	cmp	x3, #0xd
   8126c:	54000660 	b.eq	81338 <_ZN10buddy_heap8allocateEm+0x148>  // b.none
   81270:	f8637844 	ldr	x4, [x2, x3, lsl #3]
   81274:	b50006a4 	cbnz	x4, 81348 <_ZN10buddy_heap8allocateEm+0x158>
   81278:	91001023 	add	x3, x1, #0x4
   8127c:	f100347f 	cmp	x3, #0xd
   81280:	540005c0 	b.eq	81338 <_ZN10buddy_heap8allocateEm+0x148>  // b.none
   81284:	f8637844 	ldr	x4, [x2, x3, lsl #3]
   81288:	b5000604 	cbnz	x4, 81348 <_ZN10buddy_heap8allocateEm+0x158>
   8128c:	91001423 	add	x3, x1, #0x5
   81290:	f100347f 	cmp	x3, #0xd
   81294:	54000520 	b.eq	81338 <_ZN10buddy_heap8allocateEm+0x148>  // b.none
   81298:	913d00a0 	add	x0, x5, #0xf40
   8129c:	f8637804 	ldr	x4, [x0, x3, lsl #3]
   812a0:	b5000544 	cbnz	x4, 81348 <_ZN10buddy_heap8allocateEm+0x158>
   812a4:	91001823 	add	x3, x1, #0x6
   812a8:	f100347f 	cmp	x3, #0xd
   812ac:	54000460 	b.eq	81338 <_ZN10buddy_heap8allocateEm+0x148>  // b.none
   812b0:	f8637804 	ldr	x4, [x0, x3, lsl #3]
   812b4:	b50004a4 	cbnz	x4, 81348 <_ZN10buddy_heap8allocateEm+0x158>
   812b8:	91001c23 	add	x3, x1, #0x7
   812bc:	f100347f 	cmp	x3, #0xd
   812c0:	540003c0 	b.eq	81338 <_ZN10buddy_heap8allocateEm+0x148>  // b.none
   812c4:	f8637804 	ldr	x4, [x0, x3, lsl #3]
   812c8:	b5000404 	cbnz	x4, 81348 <_ZN10buddy_heap8allocateEm+0x158>
   812cc:	91002023 	add	x3, x1, #0x8
   812d0:	f100347f 	cmp	x3, #0xd
   812d4:	54000320 	b.eq	81338 <_ZN10buddy_heap8allocateEm+0x148>  // b.none
   812d8:	f8637804 	ldr	x4, [x0, x3, lsl #3]
   812dc:	b5000364 	cbnz	x4, 81348 <_ZN10buddy_heap8allocateEm+0x158>
   812e0:	91002423 	add	x3, x1, #0x9
   812e4:	f100347f 	cmp	x3, #0xd
   812e8:	54000280 	b.eq	81338 <_ZN10buddy_heap8allocateEm+0x148>  // b.none
   812ec:	f8637804 	ldr	x4, [x0, x3, lsl #3]
   812f0:	b50002c4 	cbnz	x4, 81348 <_ZN10buddy_heap8allocateEm+0x158>
   812f4:	91002823 	add	x3, x1, #0xa
   812f8:	f100347f 	cmp	x3, #0xd
   812fc:	540001e0 	b.eq	81338 <_ZN10buddy_heap8allocateEm+0x148>  // b.none
   81300:	f8637804 	ldr	x4, [x0, x3, lsl #3]
   81304:	b5000224 	cbnz	x4, 81348 <_ZN10buddy_heap8allocateEm+0x158>
   81308:	91002c23 	add	x3, x1, #0xb
   8130c:	f100347f 	cmp	x3, #0xd
   81310:	54000140 	b.eq	81338 <_ZN10buddy_heap8allocateEm+0x148>  // b.none
   81314:	f8637804 	ldr	x4, [x0, x3, lsl #3]
   81318:	b5000184 	cbnz	x4, 81348 <_ZN10buddy_heap8allocateEm+0x158>
   8131c:	91003023 	add	x3, x1, #0xc
   81320:	f100347f 	cmp	x3, #0xd
   81324:	540000a0 	b.eq	81338 <_ZN10buddy_heap8allocateEm+0x148>  // b.none
   81328:	f8637804 	ldr	x4, [x0, x3, lsl #3]
   8132c:	b50000e4 	cbnz	x4, 81348 <_ZN10buddy_heap8allocateEm+0x158>
   81330:	f9403004 	ldr	x4, [x0, #96]
   81334:	b5000064 	cbnz	x4, 81340 <_ZN10buddy_heap8allocateEm+0x150>
   81338:	d2800000 	mov	x0, #0x0                   	// #0
   8133c:	d65f03c0 	ret
   81340:	d2800183 	mov	x3, #0xc                   	// #12
   81344:	d503201f 	nop
   81348:	913d00a2 	add	x2, x5, #0xf40
   8134c:	d1000466 	sub	x6, x3, #0x1
   81350:	a9400088 	ldp	x8, x0, [x4]
   81354:	eb06003f 	cmp	x1, x6
   81358:	f9403447 	ldr	x7, [x2, #104]
   8135c:	f8237848 	str	x8, [x2, x3, lsl #3]
   81360:	d10020e3 	sub	x3, x7, #0x8
   81364:	f9003443 	str	x3, [x2, #104]
   81368:	f81f80e4 	stur	x4, [x7, #-8]
   8136c:	54001a88 	b.hi	816bc <_ZN10buddy_heap8allocateEm+0x4cc>  // b.pmore
   81370:	913d00a2 	add	x2, x5, #0xf40
   81374:	52800023 	mov	w3, #0x1                   	// #1
   81378:	1ac62064 	lsl	w4, w3, w6
   8137c:	d10004c7 	sub	x7, x6, #0x1
   81380:	93407c84 	sxtw	x4, w4
   81384:	eb07003f 	cmp	x1, x7
   81388:	f9403848 	ldr	x8, [x2, #112]
   8138c:	cb080009 	sub	x9, x0, x8
   81390:	ca090084 	eor	x4, x4, x9
   81394:	8b080089 	add	x9, x4, x8
   81398:	f8286886 	str	x6, [x4, x8]
   8139c:	f9403448 	ldr	x8, [x2, #104]
   813a0:	f866784a 	ldr	x10, [x2, x6, lsl #3]
   813a4:	f8408504 	ldr	x4, [x8], #8
   813a8:	f9003448 	str	x8, [x2, #104]
   813ac:	a900248a 	stp	x10, x9, [x4]
   813b0:	f8267844 	str	x4, [x2, x6, lsl #3]
   813b4:	54001848 	b.hi	816bc <_ZN10buddy_heap8allocateEm+0x4cc>  // b.pmore
   813b8:	f9403849 	ldr	x9, [x2, #112]
   813bc:	1ac72068 	lsl	w8, w3, w7
   813c0:	93407d0a 	sxtw	x10, w8
   813c4:	d10008c4 	sub	x4, x6, #0x2
   813c8:	cb090008 	sub	x8, x0, x9
   813cc:	eb04003f 	cmp	x1, x4
   813d0:	ca0a0108 	eor	x8, x8, x10
   813d4:	8b09010a 	add	x10, x8, x9
   813d8:	f8296907 	str	x7, [x8, x9]
   813dc:	f9403449 	ldr	x9, [x2, #104]
   813e0:	f867784b 	ldr	x11, [x2, x7, lsl #3]
   813e4:	f8408528 	ldr	x8, [x9], #8
   813e8:	f9003449 	str	x9, [x2, #104]
   813ec:	a900290b 	stp	x11, x10, [x8]
   813f0:	f8277848 	str	x8, [x2, x7, lsl #3]
   813f4:	54001648 	b.hi	816bc <_ZN10buddy_heap8allocateEm+0x4cc>  // b.pmore
   813f8:	f9403849 	ldr	x9, [x2, #112]
   813fc:	1ac42068 	lsl	w8, w3, w4
   81400:	93407d0a 	sxtw	x10, w8
   81404:	d1000cc7 	sub	x7, x6, #0x3
   81408:	cb090008 	sub	x8, x0, x9
   8140c:	eb07003f 	cmp	x1, x7
   81410:	ca0a0108 	eor	x8, x8, x10
   81414:	8b09010a 	add	x10, x8, x9
   81418:	f8296904 	str	x4, [x8, x9]
   8141c:	f9403449 	ldr	x9, [x2, #104]
   81420:	f864784b 	ldr	x11, [x2, x4, lsl #3]
   81424:	f8408528 	ldr	x8, [x9], #8
   81428:	f9003449 	str	x9, [x2, #104]
   8142c:	a900290b 	stp	x11, x10, [x8]
   81430:	f8247848 	str	x8, [x2, x4, lsl #3]
   81434:	54001448 	b.hi	816bc <_ZN10buddy_heap8allocateEm+0x4cc>  // b.pmore
   81438:	f9403849 	ldr	x9, [x2, #112]
   8143c:	1ac72068 	lsl	w8, w3, w7
   81440:	93407d0a 	sxtw	x10, w8
   81444:	d10010c4 	sub	x4, x6, #0x4
   81448:	cb090008 	sub	x8, x0, x9
   8144c:	eb04003f 	cmp	x1, x4
   81450:	ca0a0108 	eor	x8, x8, x10
   81454:	8b09010a 	add	x10, x8, x9
   81458:	f8296907 	str	x7, [x8, x9]
   8145c:	f9403449 	ldr	x9, [x2, #104]
   81460:	f867784b 	ldr	x11, [x2, x7, lsl #3]
   81464:	f8408528 	ldr	x8, [x9], #8
   81468:	f9003449 	str	x9, [x2, #104]
   8146c:	a900290b 	stp	x11, x10, [x8]
   81470:	f8277848 	str	x8, [x2, x7, lsl #3]
   81474:	54001248 	b.hi	816bc <_ZN10buddy_heap8allocateEm+0x4cc>  // b.pmore
   81478:	f9403849 	ldr	x9, [x2, #112]
   8147c:	1ac42068 	lsl	w8, w3, w4
   81480:	93407d0a 	sxtw	x10, w8
   81484:	d10014c7 	sub	x7, x6, #0x5
   81488:	cb090008 	sub	x8, x0, x9
   8148c:	eb07003f 	cmp	x1, x7
   81490:	ca0a0108 	eor	x8, x8, x10
   81494:	8b09010a 	add	x10, x8, x9
   81498:	f8296904 	str	x4, [x8, x9]
   8149c:	f9403449 	ldr	x9, [x2, #104]
   814a0:	f864784b 	ldr	x11, [x2, x4, lsl #3]
   814a4:	f8408528 	ldr	x8, [x9], #8
   814a8:	f9003449 	str	x9, [x2, #104]
   814ac:	a900290b 	stp	x11, x10, [x8]
   814b0:	f8247848 	str	x8, [x2, x4, lsl #3]
   814b4:	54001048 	b.hi	816bc <_ZN10buddy_heap8allocateEm+0x4cc>  // b.pmore
   814b8:	f9403849 	ldr	x9, [x2, #112]
   814bc:	1ac72068 	lsl	w8, w3, w7
   814c0:	93407d0a 	sxtw	x10, w8
   814c4:	d10018c4 	sub	x4, x6, #0x6
   814c8:	cb090008 	sub	x8, x0, x9
   814cc:	eb04003f 	cmp	x1, x4
   814d0:	ca0a0108 	eor	x8, x8, x10
   814d4:	8b09010a 	add	x10, x8, x9
   814d8:	f8296907 	str	x7, [x8, x9]
   814dc:	f9403449 	ldr	x9, [x2, #104]
   814e0:	f867784b 	ldr	x11, [x2, x7, lsl #3]
   814e4:	f8408528 	ldr	x8, [x9], #8
   814e8:	f9003449 	str	x9, [x2, #104]
   814ec:	a900290b 	stp	x11, x10, [x8]
   814f0:	f8277848 	str	x8, [x2, x7, lsl #3]
   814f4:	54000e48 	b.hi	816bc <_ZN10buddy_heap8allocateEm+0x4cc>  // b.pmore
   814f8:	f9403849 	ldr	x9, [x2, #112]
   814fc:	1ac42068 	lsl	w8, w3, w4
   81500:	93407d0a 	sxtw	x10, w8
   81504:	d1001cc7 	sub	x7, x6, #0x7
   81508:	cb090008 	sub	x8, x0, x9
   8150c:	eb07003f 	cmp	x1, x7
   81510:	ca0a0108 	eor	x8, x8, x10
   81514:	8b09010a 	add	x10, x8, x9
   81518:	f8296904 	str	x4, [x8, x9]
   8151c:	f9403449 	ldr	x9, [x2, #104]
   81520:	f864784b 	ldr	x11, [x2, x4, lsl #3]
   81524:	f8408528 	ldr	x8, [x9], #8
   81528:	f9003449 	str	x9, [x2, #104]
   8152c:	a900290b 	stp	x11, x10, [x8]
   81530:	f8247848 	str	x8, [x2, x4, lsl #3]
   81534:	54000c48 	b.hi	816bc <_ZN10buddy_heap8allocateEm+0x4cc>  // b.pmore
   81538:	f9403849 	ldr	x9, [x2, #112]
   8153c:	1ac72068 	lsl	w8, w3, w7
   81540:	93407d0a 	sxtw	x10, w8
   81544:	d10020c4 	sub	x4, x6, #0x8
   81548:	cb090008 	sub	x8, x0, x9
   8154c:	eb04003f 	cmp	x1, x4
   81550:	ca0a0108 	eor	x8, x8, x10
   81554:	8b09010a 	add	x10, x8, x9
   81558:	f8296907 	str	x7, [x8, x9]
   8155c:	f9403449 	ldr	x9, [x2, #104]
   81560:	f867784b 	ldr	x11, [x2, x7, lsl #3]
   81564:	f8408528 	ldr	x8, [x9], #8
   81568:	f9003449 	str	x9, [x2, #104]
   8156c:	a900290b 	stp	x11, x10, [x8]
   81570:	f8277848 	str	x8, [x2, x7, lsl #3]
   81574:	54000a48 	b.hi	816bc <_ZN10buddy_heap8allocateEm+0x4cc>  // b.pmore
   81578:	f9403849 	ldr	x9, [x2, #112]
   8157c:	1ac42068 	lsl	w8, w3, w4
   81580:	93407d0a 	sxtw	x10, w8
   81584:	d10024c7 	sub	x7, x6, #0x9
   81588:	cb090008 	sub	x8, x0, x9
   8158c:	eb07003f 	cmp	x1, x7
   81590:	ca0a0108 	eor	x8, x8, x10
   81594:	8b09010a 	add	x10, x8, x9
   81598:	f8296904 	str	x4, [x8, x9]
   8159c:	f9403449 	ldr	x9, [x2, #104]
   815a0:	f864784b 	ldr	x11, [x2, x4, lsl #3]
   815a4:	f8408528 	ldr	x8, [x9], #8
   815a8:	f9003449 	str	x9, [x2, #104]
   815ac:	a900290b 	stp	x11, x10, [x8]
   815b0:	f8247848 	str	x8, [x2, x4, lsl #3]
   815b4:	54000848 	b.hi	816bc <_ZN10buddy_heap8allocateEm+0x4cc>  // b.pmore
   815b8:	f9403849 	ldr	x9, [x2, #112]
   815bc:	1ac72063 	lsl	w3, w3, w7
   815c0:	93407c63 	sxtw	x3, w3
   815c4:	d10028c4 	sub	x4, x6, #0xa
   815c8:	cb090008 	sub	x8, x0, x9
   815cc:	eb04003f 	cmp	x1, x4
   815d0:	ca030103 	eor	x3, x8, x3
   815d4:	8b09006a 	add	x10, x3, x9
   815d8:	f8296867 	str	x7, [x3, x9]
   815dc:	f9403448 	ldr	x8, [x2, #104]
   815e0:	f8677849 	ldr	x9, [x2, x7, lsl #3]
   815e4:	f8408503 	ldr	x3, [x8], #8
   815e8:	f9003448 	str	x8, [x2, #104]
   815ec:	a9002869 	stp	x9, x10, [x3]
   815f0:	f8277843 	str	x3, [x2, x7, lsl #3]
   815f4:	54000648 	b.hi	816bc <_ZN10buddy_heap8allocateEm+0x4cc>  // b.pmore
   815f8:	aa0203e5 	mov	x5, x2
   815fc:	52800022 	mov	w2, #0x1                   	// #1
   81600:	1ac42047 	lsl	w7, w2, w4
   81604:	d1002cc3 	sub	x3, x6, #0xb
   81608:	93407ce9 	sxtw	x9, w7
   8160c:	eb03003f 	cmp	x1, x3
   81610:	f94038a8 	ldr	x8, [x5, #112]
   81614:	cb080007 	sub	x7, x0, x8
   81618:	ca0900e7 	eor	x7, x7, x9
   8161c:	8b0800e9 	add	x9, x7, x8
   81620:	f82868e4 	str	x4, [x7, x8]
   81624:	f94034a8 	ldr	x8, [x5, #104]
   81628:	f86478aa 	ldr	x10, [x5, x4, lsl #3]
   8162c:	f8408507 	ldr	x7, [x8], #8
   81630:	f90034a8 	str	x8, [x5, #104]
   81634:	a90024ea 	stp	x10, x9, [x7]
   81638:	f82478a7 	str	x7, [x5, x4, lsl #3]
   8163c:	54000408 	b.hi	816bc <_ZN10buddy_heap8allocateEm+0x4cc>  // b.pmore
   81640:	f94038a7 	ldr	x7, [x5, #112]
   81644:	1ac32044 	lsl	w4, w2, w3
   81648:	93407c88 	sxtw	x8, w4
   8164c:	d10030c6 	sub	x6, x6, #0xc
   81650:	cb070004 	sub	x4, x0, x7
   81654:	eb06003f 	cmp	x1, x6
   81658:	ca080084 	eor	x4, x4, x8
   8165c:	8b070088 	add	x8, x4, x7
   81660:	f8276883 	str	x3, [x4, x7]
   81664:	f94034a7 	ldr	x7, [x5, #104]
   81668:	f86378a9 	ldr	x9, [x5, x3, lsl #3]
   8166c:	f84084e4 	ldr	x4, [x7], #8
   81670:	f90034a7 	str	x7, [x5, #104]
   81674:	f9000089 	str	x9, [x4]
   81678:	f9000488 	str	x8, [x4, #8]
   8167c:	f82378a4 	str	x4, [x5, x3, lsl #3]
   81680:	540001e8 	b.hi	816bc <_ZN10buddy_heap8allocateEm+0x4cc>  // b.pmore
   81684:	f94038a4 	ldr	x4, [x5, #112]
   81688:	1ac62042 	lsl	w2, w2, w6
   8168c:	93407c42 	sxtw	x2, w2
   81690:	cb040003 	sub	x3, x0, x4
   81694:	ca020062 	eor	x2, x3, x2
   81698:	8b040047 	add	x7, x2, x4
   8169c:	f8246846 	str	x6, [x2, x4]
   816a0:	f94034a3 	ldr	x3, [x5, #104]
   816a4:	f86678a4 	ldr	x4, [x5, x6, lsl #3]
   816a8:	f8408462 	ldr	x2, [x3], #8
   816ac:	f90034a3 	str	x3, [x5, #104]
   816b0:	f9000044 	str	x4, [x2]
   816b4:	f9000447 	str	x7, [x2, #8]
   816b8:	f82678a2 	str	x2, [x5, x6, lsl #3]
   816bc:	f8008401 	str	x1, [x0], #8
   816c0:	d65f03c0 	ret
   816c4:	f9403444 	ldr	x4, [x2, #104]
   816c8:	f9400066 	ldr	x6, [x3]
   816cc:	f8207846 	str	x6, [x2, x0, lsl #3]
   816d0:	d1002086 	sub	x6, x4, #0x8
   816d4:	f9003446 	str	x6, [x2, #104]
   816d8:	aa0103e6 	mov	x6, x1
   816dc:	f9400460 	ldr	x0, [x3, #8]
   816e0:	f81f8083 	stur	x3, [x4, #-8]
   816e4:	17ffff23 	b	81370 <_ZN10buddy_heap8allocateEm+0x180>
   816e8:	d503201f 	nop
   816ec:	d503201f 	nop

00000000000816f0 <_ZN10buddy_heap4freeEPv>:
   816f0:	b4000460 	cbz	x0, 8177c <_ZN10buddy_heap4freeEPv+0x8c>
   816f4:	9000006b 	adrp	x11, 8d000 <_ZN4font9monospaceE+0x5760>
   816f8:	913d0166 	add	x6, x11, #0xf40
   816fc:	f85f8003 	ldur	x3, [x0, #-8]
   81700:	d1002004 	sub	x4, x0, #0x8
   81704:	f94034c8 	ldr	x8, [x6, #104]
   81708:	f86378c5 	ldr	x5, [x6, x3, lsl #3]
   8170c:	b4000285 	cbz	x5, 8175c <_ZN10buddy_heap4freeEPv+0x6c>
   81710:	f94038c2 	ldr	x2, [x6, #112]
   81714:	52800029 	mov	w9, #0x1                   	// #1
   81718:	1ac32120 	lsl	w0, w9, w3
   8171c:	aa0803e7 	mov	x7, x8
   81720:	93407c00 	sxtw	x0, w0
   81724:	cb020081 	sub	x1, x4, x2
   81728:	ca000021 	eor	x1, x1, x0
   8172c:	8b020021 	add	x1, x1, x2
   81730:	a94008a0 	ldp	x0, x2, [x5]
   81734:	aa0703e8 	mov	x8, x7
   81738:	eb01005f 	cmp	x2, x1
   8173c:	54000220 	b.eq	81780 <_ZN10buddy_heap4freeEPv+0x90>  // b.none
   81740:	b40000e0 	cbz	x0, 8175c <_ZN10buddy_heap4freeEPv+0x6c>
   81744:	d503201f 	nop
   81748:	f9400402 	ldr	x2, [x0, #8]
   8174c:	eb01005f 	cmp	x2, x1
   81750:	54000500 	b.eq	817f0 <_ZN10buddy_heap4freeEPv+0x100>  // b.none
   81754:	f9400000 	ldr	x0, [x0]
   81758:	b5ffff80 	cbnz	x0, 81748 <_ZN10buddy_heap4freeEPv+0x58>
   8175c:	f8408501 	ldr	x1, [x8], #8
   81760:	913d0160 	add	x0, x11, #0xf40
   81764:	f9000424 	str	x4, [x1, #8]
   81768:	f9003408 	str	x8, [x0, #104]
   8176c:	f9000083 	str	x3, [x4]
   81770:	f8637802 	ldr	x2, [x0, x3, lsl #3]
   81774:	f9000022 	str	x2, [x1]
   81778:	f8237801 	str	x1, [x0, x3, lsl #3]
   8177c:	d65f03c0 	ret
   81780:	d10020ea 	sub	x10, x7, #0x8
   81784:	f82378c0 	str	x0, [x6, x3, lsl #3]
   81788:	aa0a03e8 	mov	x8, x10
   8178c:	f81f80e5 	stur	x5, [x7, #-8]
   81790:	1ac32120 	lsl	w0, w9, w3
   81794:	91000463 	add	x3, x3, #0x1
   81798:	f94038c2 	ldr	x2, [x6, #112]
   8179c:	2a2003e0 	mvn	w0, w0
   817a0:	93407c00 	sxtw	x0, w0
   817a4:	1ac32121 	lsl	w1, w9, w3
   817a8:	f86378c5 	ldr	x5, [x6, x3, lsl #3]
   817ac:	cb020084 	sub	x4, x4, x2
   817b0:	8a040000 	and	x0, x0, x4
   817b4:	93407c21 	sxtw	x1, w1
   817b8:	ca000021 	eor	x1, x1, x0
   817bc:	aa0a03e7 	mov	x7, x10
   817c0:	8b000044 	add	x4, x2, x0
   817c4:	8b020021 	add	x1, x1, x2
   817c8:	b5fffb45 	cbnz	x5, 81730 <_ZN10buddy_heap4freeEPv+0x40>
   817cc:	f8408501 	ldr	x1, [x8], #8
   817d0:	913d0160 	add	x0, x11, #0xf40
   817d4:	f9000424 	str	x4, [x1, #8]
   817d8:	f9003408 	str	x8, [x0, #104]
   817dc:	f9000083 	str	x3, [x4]
   817e0:	f8637802 	ldr	x2, [x0, x3, lsl #3]
   817e4:	f9000022 	str	x2, [x1]
   817e8:	f8237801 	str	x1, [x0, x3, lsl #3]
   817ec:	17ffffe4 	b	8177c <_ZN10buddy_heap4freeEPv+0x8c>
   817f0:	f9400001 	ldr	x1, [x0]
   817f4:	d10020ea 	sub	x10, x7, #0x8
   817f8:	f90000a1 	str	x1, [x5]
   817fc:	aa0a03e8 	mov	x8, x10
   81800:	f81f80e0 	stur	x0, [x7, #-8]
   81804:	17ffffe3 	b	81790 <_ZN10buddy_heap4freeEPv+0xa0>
	...

0000000000081810 <_Znwm>:
   81810:	17fffe78 	b	811f0 <_ZN10buddy_heap8allocateEm>
   81814:	d503201f 	nop
   81818:	d503201f 	nop
   8181c:	d503201f 	nop

0000000000081820 <_Znam>:
   81820:	17fffe74 	b	811f0 <_ZN10buddy_heap8allocateEm>
   81824:	d503201f 	nop
   81828:	d503201f 	nop
   8182c:	d503201f 	nop

0000000000081830 <_ZdlPv>:
   81830:	17ffffb0 	b	816f0 <_ZN10buddy_heap4freeEPv>
   81834:	d503201f 	nop
   81838:	d503201f 	nop
   8183c:	d503201f 	nop

0000000000081840 <_ZdaPv>:
   81840:	17ffffac 	b	816f0 <_ZN10buddy_heap4freeEPv>
   81844:	d503201f 	nop
   81848:	d503201f 	nop
   8184c:	d503201f 	nop

0000000000081850 <_ZdlPvm>:
   81850:	17ffffa8 	b	816f0 <_ZN10buddy_heap4freeEPv>
   81854:	d503201f 	nop
   81858:	d503201f 	nop
   8185c:	d503201f 	nop

0000000000081860 <_ZdaPvm>:
   81860:	17ffffa4 	b	816f0 <_ZN10buddy_heap4freeEPv>
	...

0000000000081870 <_ZN11push_buttonD1Ev>:
   81870:	90000061 	adrp	x1, 8d000 <_ZN4font9monospaceE+0x5760>
   81874:	91312021 	add	x1, x1, #0xc48
   81878:	f9000001 	str	x1, [x0]
   8187c:	1400047d 	b	82a70 <_ZN6buttonD1Ev>

0000000000081880 <_ZN11push_buttonD0Ev>:
   81880:	a9be7bfd 	stp	x29, x30, [sp, #-32]!
   81884:	90000061 	adrp	x1, 8d000 <_ZN4font9monospaceE+0x5760>
   81888:	91312021 	add	x1, x1, #0xc48
   8188c:	910003fd 	mov	x29, sp
   81890:	f9000bf3 	str	x19, [sp, #16]
   81894:	aa0003f3 	mov	x19, x0
   81898:	f9000001 	str	x1, [x0]
   8189c:	94000475 	bl	82a70 <_ZN6buttonD1Ev>
   818a0:	aa1303e0 	mov	x0, x19
   818a4:	f9400bf3 	ldr	x19, [sp, #16]
   818a8:	a8c27bfd 	ldp	x29, x30, [sp], #32
   818ac:	d2800601 	mov	x1, #0x30                  	// #48
   818b0:	17ffffe8 	b	81850 <_ZdlPvm>
   818b4:	d503201f 	nop
   818b8:	d503201f 	nop
   818bc:	d503201f 	nop

00000000000818c0 <_ZN11push_buttonC1E9rectangle5color>:
   818c0:	aa0203e3 	mov	x3, x2
   818c4:	aa0103e4 	mov	x4, x1
   818c8:	a9bc7bfd 	stp	x29, x30, [sp, #-64]!
   818cc:	910003fd 	mov	x29, sp
   818d0:	3940006a 	ldrb	w10, [x3]
   818d4:	9100a3a2 	add	x2, x29, #0x28
   818d8:	39400469 	ldrb	w9, [x3, #1]
   818dc:	9100c3a1 	add	x1, x29, #0x30
   818e0:	39400868 	ldrb	w8, [x3, #2]
   818e4:	29401887 	ldp	w7, w6, [x4]
   818e8:	3900a3aa 	strb	w10, [x29, #40]
   818ec:	39400c63 	ldrb	w3, [x3, #3]
   818f0:	29411085 	ldp	w5, w4, [x4, #8]
   818f4:	3900a7a9 	strb	w9, [x29, #41]
   818f8:	f9000bf3 	str	x19, [sp, #16]
   818fc:	aa0003f3 	mov	x19, x0
   81900:	3900aba8 	strb	w8, [x29, #42]
   81904:	3900afa3 	strb	w3, [x29, #43]
   81908:	29061ba7 	stp	w7, w6, [x29, #48]
   8190c:	290713a5 	stp	w5, w4, [x29, #56]
   81910:	9400046c 	bl	82ac0 <_ZN6buttonC1E9rectangle5color>
   81914:	9100a3a0 	add	x0, x29, #0x28
   81918:	94000496 	bl	82b70 <_ZN5colorD1Ev>
   8191c:	9100c3a0 	add	x0, x29, #0x30
   81920:	97fffdd0 	bl	81060 <_ZN9rectangleD1Ev>
   81924:	90000060 	adrp	x0, 8d000 <_ZN4font9monospaceE+0x5760>
   81928:	91312000 	add	x0, x0, #0xc48
   8192c:	f9000260 	str	x0, [x19]
   81930:	f9400bf3 	ldr	x19, [sp, #16]
   81934:	a8c47bfd 	ldp	x29, x30, [sp], #64
   81938:	d65f03c0 	ret
   8193c:	d503201f 	nop

0000000000081940 <_ZN11push_button10set_pushedEv>:
   81940:	d65f03c0 	ret
   81944:	d503201f 	nop
   81948:	d503201f 	nop
   8194c:	d503201f 	nop

0000000000081950 <_ZN11push_button12check_pushedEv>:
   81950:	3940b001 	ldrb	w1, [x0, #44]
   81954:	3900b01f 	strb	wzr, [x0, #44]
   81958:	2a0103e0 	mov	w0, w1
   8195c:	d65f03c0 	ret

0000000000081960 <_ZN6screenC1E6vectorILj2EjEP5color>:
   81960:	aa0103e3 	mov	x3, x1
   81964:	a9bd7bfd 	stp	x29, x30, [sp, #-48]!
   81968:	0f000400 	movi	v0.2s, #0x0
   8196c:	910003fd 	mov	x29, sp
   81970:	29400c64 	ldp	w4, w3, [x3]
   81974:	a90153f3 	stp	x19, x20, [sp, #16]
   81978:	aa0003f3 	mov	x19, x0
   8197c:	aa0203f4 	mov	x20, x2
   81980:	910083a1 	add	x1, x29, #0x20
   81984:	9100a3a2 	add	x2, x29, #0x28
   81988:	fd0013a0 	str	d0, [x29, #32]
   8198c:	29050fa4 	stp	w4, w3, [x29, #40]
   81990:	97fffda8 	bl	81030 <_ZN9rectangleC1E6vectorILj2EjES1_>
   81994:	f9000a74 	str	x20, [x19, #16]
   81998:	a94153f3 	ldp	x19, x20, [sp, #16]
   8199c:	a8c37bfd 	ldp	x29, x30, [sp], #48
   819a0:	d65f03c0 	ret
   819a4:	d503201f 	nop
   819a8:	d503201f 	nop
   819ac:	d503201f 	nop

00000000000819b0 <_ZN6screenD1Ev>:
   819b0:	17fffdac 	b	81060 <_ZN9rectangleD1Ev>
   819b4:	d503201f 	nop
   819b8:	d503201f 	nop
   819bc:	d503201f 	nop

00000000000819c0 <_ZN6screen13get_footprintEv>:
   819c0:	d65f03c0 	ret
   819c4:	d503201f 	nop
   819c8:	d503201f 	nop
   819cc:	d503201f 	nop

00000000000819d0 <_ZN6screen5clearE5color>:
   819d0:	b9400802 	ldr	w2, [x0, #8]
   819d4:	34000642 	cbz	w2, 81a9c <_ZN6screen5clearE5color+0xcc>
   819d8:	a9bc7bfd 	stp	x29, x30, [sp, #-64]!
   819dc:	910003fd 	mov	x29, sp
   819e0:	a9025bf5 	stp	x21, x22, [sp, #32]
   819e4:	aa0003f5 	mov	x21, x0
   819e8:	b9400c00 	ldr	w0, [x0, #12]
   819ec:	52800016 	mov	w22, #0x0                   	// #0
   819f0:	a90153f3 	stp	x19, x20, [sp, #16]
   819f4:	aa0103f4 	mov	x20, x1
   819f8:	34000440 	cbz	w0, 81a80 <_ZN6screen5clearE5color+0xb0>
   819fc:	52800013 	mov	w19, #0x0                   	// #0
   81a00:	1b025a62 	madd	w2, w19, w2, w22
   81a04:	f9400aa0 	ldr	x0, [x21, #16]
   81a08:	39400e81 	ldrb	w1, [x20, #3]
   81a0c:	11000673 	add	w19, w19, #0x1
   81a10:	39400283 	ldrb	w3, [x20]
   81a14:	d37ef442 	lsl	x2, x2, #2
   81a18:	39400685 	ldrb	w5, [x20, #1]
   81a1c:	39400a84 	ldrb	w4, [x20, #2]
   81a20:	3900e3a3 	strb	w3, [x29, #56]
   81a24:	3900e7a5 	strb	w5, [x29, #57]
   81a28:	3900eba4 	strb	w4, [x29, #58]
   81a2c:	3900efa1 	strb	w1, [x29, #59]
   81a30:	8b020001 	add	x1, x0, x2
   81a34:	38226803 	strb	w3, [x0, x2]
   81a38:	9100e3a0 	add	x0, x29, #0x38
   81a3c:	3940e7a2 	ldrb	w2, [x29, #57]
   81a40:	39000422 	strb	w2, [x1, #1]
   81a44:	3940eba2 	ldrb	w2, [x29, #58]
   81a48:	39000822 	strb	w2, [x1, #2]
   81a4c:	3940efa2 	ldrb	w2, [x29, #59]
   81a50:	39000c22 	strb	w2, [x1, #3]
   81a54:	94000447 	bl	82b70 <_ZN5colorD1Ev>
   81a58:	294102a2 	ldp	w2, w0, [x21, #8]
   81a5c:	6b13001f 	cmp	w0, w19
   81a60:	54fffd08 	b.hi	81a00 <_ZN6screen5clearE5color+0x30>  // b.pmore
   81a64:	110006d6 	add	w22, w22, #0x1
   81a68:	6b0202df 	cmp	w22, w2
   81a6c:	54fffc63 	b.cc	819f8 <_ZN6screen5clearE5color+0x28>  // b.lo, b.ul, b.last
   81a70:	a94153f3 	ldp	x19, x20, [sp, #16]
   81a74:	a9425bf5 	ldp	x21, x22, [sp, #32]
   81a78:	a8c47bfd 	ldp	x29, x30, [sp], #64
   81a7c:	d65f03c0 	ret
   81a80:	110006d6 	add	w22, w22, #0x1
   81a84:	6b0202df 	cmp	w22, w2
   81a88:	54ffff42 	b.cs	81a70 <_ZN6screen5clearE5color+0xa0>  // b.hs, b.nlast
   81a8c:	110006d6 	add	w22, w22, #0x1
   81a90:	6b0202df 	cmp	w22, w2
   81a94:	54fffb23 	b.cc	819f8 <_ZN6screen5clearE5color+0x28>  // b.lo, b.ul, b.last
   81a98:	17fffff6 	b	81a70 <_ZN6screen5clearE5color+0xa0>
   81a9c:	d65f03c0 	ret

0000000000081aa0 <_ZN6screen9draw_lineE6vectorILj2EjES1_5color>:
   81aa0:	a9b57bfd 	stp	x29, x30, [sp, #-176]!
   81aa4:	910003fd 	mov	x29, sp
   81aa8:	a9025bf5 	stp	x21, x22, [sp, #32]
   81aac:	aa0203f6 	mov	x22, x2
   81ab0:	39400864 	ldrb	w4, [x3, #2]
   81ab4:	29400825 	ldp	w5, w2, [x1]
   81ab8:	a90153f3 	stp	x19, x20, [sp, #16]
   81abc:	39400067 	ldrb	w7, [x3]
   81ac0:	aa0303f3 	mov	x19, x3
   81ac4:	39400466 	ldrb	w6, [x3, #1]
   81ac8:	1e230043 	ucvtf	s3, w2
   81acc:	a90363f7 	stp	x23, x24, [sp, #48]
   81ad0:	aa0003f7 	mov	x23, x0
   81ad4:	294002c3 	ldp	w3, w0, [x22]
   81ad8:	a9046bf9 	stp	x25, x26, [sp, #64]
   81adc:	a90573fb 	stp	x27, x28, [sp, #80]
   81ae0:	390263a7 	strb	w7, [x29, #152]
   81ae4:	4b050079 	sub	w25, w3, w5
   81ae8:	390267a6 	strb	w6, [x29, #153]
   81aec:	4b02001a 	sub	w26, w0, w2
   81af0:	39026ba4 	strb	w4, [x29, #154]
   81af4:	6b19035f 	cmp	w26, w25
   81af8:	6d0627e8 	stp	d8, d9, [sp, #96]
   81afc:	2a1903e4 	mov	w4, w25
   81b00:	1e2300a8 	ucvtf	s8, w5
   81b04:	6d072fea 	stp	d10, d11, [sp, #112]
   81b08:	fd0043ec 	str	d12, [sp, #128]
   81b0c:	540001a9 	b.ls	81b40 <_ZN6screen9draw_lineE6vectorILj2EjES1_5color+0xa0>  // b.plast
   81b10:	1e230060 	ucvtf	s0, w3
   81b14:	1e390107 	fcvtzu	w7, s8
   81b18:	1e204068 	fmov	s8, s3
   81b1c:	2a0003e3 	mov	w3, w0
   81b20:	2a0203e5 	mov	w5, w2
   81b24:	2a1a03e4 	mov	w4, w26
   81b28:	1e390006 	fcvtzu	w6, s0
   81b2c:	1e2300e3 	ucvtf	s3, w7
   81b30:	29001c22 	stp	w2, w7, [x1]
   81b34:	2a0703e2 	mov	w2, w7
   81b38:	29001ac0 	stp	w0, w6, [x22]
   81b3c:	2a0603e0 	mov	w0, w6
   81b40:	6b0300bf 	cmp	w5, w3
   81b44:	54000149 	b.ls	81b6c <_ZN6screen9draw_lineE6vectorILj2EjES1_5color+0xcc>  // b.plast
   81b48:	1e390106 	fcvtzu	w6, s8
   81b4c:	1e390065 	fcvtzu	w5, s3
   81b50:	1e230068 	ucvtf	s8, w3
   81b54:	1e230003 	ucvtf	s3, w0
   81b58:	2a0003e2 	mov	w2, w0
   81b5c:	29000023 	stp	w3, w0, [x1]
   81b60:	4b0300c4 	sub	w4, w6, w3
   81b64:	2a0503e0 	mov	w0, w5
   81b68:	290016c6 	stp	w6, w5, [x22]
   81b6c:	1e2c1000 	fmov	s0, #5.000000000000000000e-01
   81b70:	4b020000 	sub	w0, w0, w2
   81b74:	1e230082 	ucvtf	s2, w4
   81b78:	1e3c1004 	fmov	s4, #-5.000000000000000000e-01
   81b7c:	1e230009 	ucvtf	s9, w0
   81b80:	39400e61 	ldrb	w1, [x19, #3]
   81b84:	1e20290a 	fadd	s10, s8, s0
   81b88:	1e203900 	fsub	s0, s8, s0
   81b8c:	1e242100 	fcmp	s8, s4
   81b90:	1e2e1001 	fmov	s1, #1.000000000000000000e+00
   81b94:	1e220024 	scvtf	s4, w1
   81b98:	1e221929 	fdiv	s9, s9, s2
   81b9c:	1e390141 	fcvtzu	w1, s10
   81ba0:	1e390000 	fcvtzu	w0, s0
   81ba4:	1e230022 	ucvtf	s2, w1
   81ba8:	1e230000 	ucvtf	s0, w0
   81bac:	1e283848 	fsub	s8, s2, s8
   81bb0:	1e22dc00 	fcsel	s0, s0, s2, le
   81bb4:	1e39005c 	fcvtzu	w28, s2
   81bb8:	6b19035f 	cmp	w26, w25
   81bbc:	1f090d08 	fmadd	s8, s8, s9, s3
   81bc0:	1e20394a 	fsub	s10, s10, s0
   81bc4:	1e2a382a 	fsub	s10, s1, s10
   81bc8:	1e39011b 	fcvtzu	w27, s8
   81bcc:	54000949 	b.ls	81cf4 <_ZN6screen9draw_lineE6vectorILj2EjES1_5color+0x254>  // b.plast
   81bd0:	1e202118 	fcmpe	s8, #0.0
   81bd4:	54005944 	b.mi	826fc <_ZN6screen9draw_lineE6vectorILj2EjES1_5color+0xc5c>  // b.first
   81bd8:	1e213901 	fsub	s1, s8, s1
   81bdc:	1e23036b 	ucvtf	s11, w27
   81be0:	1e202108 	fcmp	s8, #0.0
   81be4:	1e390020 	fcvtzu	w0, s1
   81be8:	1e230000 	ucvtf	s0, w0
   81bec:	1e2bdc0b 	fcsel	s11, s0, s11, le
   81bf0:	1e2b390b 	fsub	s11, s8, s11
   81bf4:	1e2e1000 	fmov	s0, #1.000000000000000000e+00
   81bf8:	1e240941 	fmul	s1, s10, s4
   81bfc:	b9400ae4 	ldr	w4, [x23, #8]
   81c00:	9102a3b5 	add	x21, x29, #0xa8
   81c04:	f9400ae6 	ldr	x6, [x23, #16]
   81c08:	aa1503e0 	mov	x0, x21
   81c0c:	1e2b3800 	fsub	s0, s0, s11
   81c10:	910283b4 	add	x20, x29, #0xa0
   81c14:	11000798 	add	w24, w28, #0x1
   81c18:	1b046f84 	madd	w4, w28, w4, w27
   81c1c:	1e210800 	fmul	s0, s0, s1
   81c20:	d37ef484 	lsl	x4, x4, #2
   81c24:	8b0400c5 	add	x5, x6, x4
   81c28:	1e390001 	fcvtzu	w1, s0
   81c2c:	39026fa1 	strb	w1, [x29, #155]
   81c30:	12001c2a 	and	w10, w1, #0xff
   81c34:	2a2103e1 	mvn	w1, w1
   81c38:	b9409ba2 	ldr	w2, [x29, #152]
   81c3c:	12001c21 	and	w1, w1, #0xff
   81c40:	b900a3a2 	str	w2, [x29, #160]
   81c44:	386468c3 	ldrb	w3, [x6, x4]
   81c48:	3902a3a3 	strb	w3, [x29, #168]
   81c4c:	39428ba2 	ldrb	w2, [x29, #162]
   81c50:	394004a8 	ldrb	w8, [x5, #1]
   81c54:	3902a7a8 	strb	w8, [x29, #169]
   81c58:	394287a3 	ldrb	w3, [x29, #161]
   81c5c:	1b0a7c49 	mul	w9, w2, w10
   81c60:	394008a2 	ldrb	w2, [x5, #2]
   81c64:	3902aba2 	strb	w2, [x29, #170]
   81c68:	12001c42 	and	w2, w2, #0xff
   81c6c:	394283a7 	ldrb	w7, [x29, #160]
   81c70:	1b0a7c68 	mul	w8, w3, w10
   81c74:	39400ca3 	ldrb	w3, [x5, #3]
   81c78:	3902afa3 	strb	w3, [x29, #171]
   81c7c:	1b012442 	madd	w2, w2, w1, w9
   81c80:	3942a7a3 	ldrb	w3, [x29, #169]
   81c84:	1b0a7ce7 	mul	w7, w7, w10
   81c88:	53087c42 	lsr	w2, w2, #8
   81c8c:	3902aba2 	strb	w2, [x29, #170]
   81c90:	3942a3a2 	ldrb	w2, [x29, #168]
   81c94:	1b012063 	madd	w3, w3, w1, w8
   81c98:	53087c63 	lsr	w3, w3, #8
   81c9c:	3902a7a3 	strb	w3, [x29, #169]
   81ca0:	1b011c41 	madd	w1, w2, w1, w7
   81ca4:	53087c21 	lsr	w1, w1, #8
   81ca8:	3902a3a1 	strb	w1, [x29, #168]
   81cac:	382468c1 	strb	w1, [x6, x4]
   81cb0:	3942a7a1 	ldrb	w1, [x29, #169]
   81cb4:	390004a1 	strb	w1, [x5, #1]
   81cb8:	3942aba1 	ldrb	w1, [x29, #170]
   81cbc:	390008a1 	strb	w1, [x5, #2]
   81cc0:	3942afa1 	ldrb	w1, [x29, #171]
   81cc4:	39000ca1 	strb	w1, [x5, #3]
   81cc8:	940003aa 	bl	82b70 <_ZN5colorD1Ev>
   81ccc:	aa1403e0 	mov	x0, x20
   81cd0:	940003a8 	bl	82b70 <_ZN5colorD1Ev>
   81cd4:	b9400ae2 	ldr	w2, [x23, #8]
   81cd8:	aa1503e0 	mov	x0, x21
   81cdc:	39400e61 	ldrb	w1, [x19, #3]
   81ce0:	f9400ae6 	ldr	x6, [x23, #16]
   81ce4:	1b026f9b 	madd	w27, w28, w2, w27
   81ce8:	1e220021 	scvtf	s1, w1
   81cec:	1100077b 	add	w27, w27, #0x1
   81cf0:	14000048 	b	81e10 <_ZN6screen9draw_lineE6vectorILj2EjES1_5color+0x370>
   81cf4:	1e202118 	fcmpe	s8, #0.0
   81cf8:	54005144 	b.mi	82720 <_ZN6screen9draw_lineE6vectorILj2EjES1_5color+0xc80>  // b.first
   81cfc:	1e213901 	fsub	s1, s8, s1
   81d00:	1e23036b 	ucvtf	s11, w27
   81d04:	1e202108 	fcmp	s8, #0.0
   81d08:	1e390020 	fcvtzu	w0, s1
   81d0c:	1e230000 	ucvtf	s0, w0
   81d10:	1e2bdc0b 	fcsel	s11, s0, s11, le
   81d14:	1e2b390b 	fsub	s11, s8, s11
   81d18:	1e2e1000 	fmov	s0, #1.000000000000000000e+00
   81d1c:	1e240941 	fmul	s1, s10, s4
   81d20:	b9400ae5 	ldr	w5, [x23, #8]
   81d24:	9102a3b5 	add	x21, x29, #0xa8
   81d28:	f9400ae7 	ldr	x7, [x23, #16]
   81d2c:	aa1503e0 	mov	x0, x21
   81d30:	1e2b3800 	fsub	s0, s0, s11
   81d34:	910283b4 	add	x20, x29, #0xa0
   81d38:	11000798 	add	w24, w28, #0x1
   81d3c:	1b057365 	madd	w5, w27, w5, w28
   81d40:	1e210800 	fmul	s0, s0, s1
   81d44:	d37ef4a5 	lsl	x5, x5, #2
   81d48:	8b0500e6 	add	x6, x7, x5
   81d4c:	1e390001 	fcvtzu	w1, s0
   81d50:	39026fa1 	strb	w1, [x29, #155]
   81d54:	12001c2a 	and	w10, w1, #0xff
   81d58:	2a2103e1 	mvn	w1, w1
   81d5c:	b9409ba2 	ldr	w2, [x29, #152]
   81d60:	12001c21 	and	w1, w1, #0xff
   81d64:	b900a3a2 	str	w2, [x29, #160]
   81d68:	386568e2 	ldrb	w2, [x7, x5]
   81d6c:	3902a3a2 	strb	w2, [x29, #168]
   81d70:	39428ba3 	ldrb	w3, [x29, #162]
   81d74:	12001c42 	and	w2, w2, #0xff
   81d78:	394004c9 	ldrb	w9, [x6, #1]
   81d7c:	394283a4 	ldrb	w4, [x29, #160]
   81d80:	3902a7a9 	strb	w9, [x29, #169]
   81d84:	394287a8 	ldrb	w8, [x29, #161]
   81d88:	1b0a7c69 	mul	w9, w3, w10
   81d8c:	394008cb 	ldrb	w11, [x6, #2]
   81d90:	1b0a7c83 	mul	w3, w4, w10
   81d94:	3942a7a4 	ldrb	w4, [x29, #169]
   81d98:	1b010c42 	madd	w2, w2, w1, w3
   81d9c:	12001d63 	and	w3, w11, #0xff
   81da0:	1b0a7d08 	mul	w8, w8, w10
   81da4:	3902abab 	strb	w11, [x29, #170]
   81da8:	1b012463 	madd	w3, w3, w1, w9
   81dac:	39400cca 	ldrb	w10, [x6, #3]
   81db0:	1b012081 	madd	w1, w4, w1, w8
   81db4:	3902afaa 	strb	w10, [x29, #171]
   81db8:	53087c42 	lsr	w2, w2, #8
   81dbc:	3902a3a2 	strb	w2, [x29, #168]
   81dc0:	53087c63 	lsr	w3, w3, #8
   81dc4:	3902aba3 	strb	w3, [x29, #170]
   81dc8:	53087c21 	lsr	w1, w1, #8
   81dcc:	3902a7a1 	strb	w1, [x29, #169]
   81dd0:	382568e2 	strb	w2, [x7, x5]
   81dd4:	3942a7a1 	ldrb	w1, [x29, #169]
   81dd8:	390004c1 	strb	w1, [x6, #1]
   81ddc:	3942aba1 	ldrb	w1, [x29, #170]
   81de0:	390008c1 	strb	w1, [x6, #2]
   81de4:	3942afa1 	ldrb	w1, [x29, #171]
   81de8:	39000cc1 	strb	w1, [x6, #3]
   81dec:	94000361 	bl	82b70 <_ZN5colorD1Ev>
   81df0:	aa1403e0 	mov	x0, x20
   81df4:	9400035f 	bl	82b70 <_ZN5colorD1Ev>
   81df8:	b9400ae2 	ldr	w2, [x23, #8]
   81dfc:	aa1503e0 	mov	x0, x21
   81e00:	39400e61 	ldrb	w1, [x19, #3]
   81e04:	f9400ae6 	ldr	x6, [x23, #16]
   81e08:	1e220021 	scvtf	s1, w1
   81e0c:	1b02637b 	madd	w27, w27, w2, w24
   81e10:	1e2a082a 	fmul	s10, s1, s10
   81e14:	d37ef77b 	lsl	x27, x27, #2
   81e18:	8b1b00c5 	add	x5, x6, x27
   81e1c:	1e2b0941 	fmul	s1, s10, s11
   81e20:	1e390021 	fcvtzu	w1, s1
   81e24:	39026fa1 	strb	w1, [x29, #155]
   81e28:	12001c29 	and	w9, w1, #0xff
   81e2c:	2a2103e1 	mvn	w1, w1
   81e30:	b9409ba2 	ldr	w2, [x29, #152]
   81e34:	12001c21 	and	w1, w1, #0xff
   81e38:	b900a3a2 	str	w2, [x29, #160]
   81e3c:	387b68c2 	ldrb	w2, [x6, x27]
   81e40:	3902a3a2 	strb	w2, [x29, #168]
   81e44:	394287a4 	ldrb	w4, [x29, #161]
   81e48:	12001c42 	and	w2, w2, #0xff
   81e4c:	394004a8 	ldrb	w8, [x5, #1]
   81e50:	3902a7a8 	strb	w8, [x29, #169]
   81e54:	394283a3 	ldrb	w3, [x29, #160]
   81e58:	1b097c88 	mul	w8, w4, w9
   81e5c:	394008a4 	ldrb	w4, [x5, #2]
   81e60:	3902aba4 	strb	w4, [x29, #170]
   81e64:	39428ba7 	ldrb	w7, [x29, #162]
   81e68:	1b097c63 	mul	w3, w3, w9
   81e6c:	3942a7a4 	ldrb	w4, [x29, #169]
   81e70:	1b010c42 	madd	w2, w2, w1, w3
   81e74:	3942aba3 	ldrb	w3, [x29, #170]
   81e78:	1b097ce7 	mul	w7, w7, w9
   81e7c:	39400ca9 	ldrb	w9, [x5, #3]
   81e80:	1b012084 	madd	w4, w4, w1, w8
   81e84:	3902afa9 	strb	w9, [x29, #171]
   81e88:	1b011c61 	madd	w1, w3, w1, w7
   81e8c:	53087c42 	lsr	w2, w2, #8
   81e90:	3902a3a2 	strb	w2, [x29, #168]
   81e94:	53087c83 	lsr	w3, w4, #8
   81e98:	3902a7a3 	strb	w3, [x29, #169]
   81e9c:	53087c21 	lsr	w1, w1, #8
   81ea0:	3902aba1 	strb	w1, [x29, #170]
   81ea4:	383b68c2 	strb	w2, [x6, x27]
   81ea8:	3942a7a1 	ldrb	w1, [x29, #169]
   81eac:	390004a1 	strb	w1, [x5, #1]
   81eb0:	3942aba1 	ldrb	w1, [x29, #170]
   81eb4:	390008a1 	strb	w1, [x5, #2]
   81eb8:	3942afa1 	ldrb	w1, [x29, #171]
   81ebc:	39000ca1 	strb	w1, [x5, #3]
   81ec0:	9400032c 	bl	82b70 <_ZN5colorD1Ev>
   81ec4:	aa1403e0 	mov	x0, x20
   81ec8:	9400032a 	bl	82b70 <_ZN5colorD1Ev>
   81ecc:	294006c0 	ldp	w0, w1, [x22]
   81ed0:	1e2c1001 	fmov	s1, #5.000000000000000000e-01
   81ed4:	1e3c1003 	fmov	s3, #-5.000000000000000000e-01
   81ed8:	39400e62 	ldrb	w2, [x19, #3]
   81edc:	1e230000 	ucvtf	s0, w0
   81ee0:	1e230024 	ucvtf	s4, w1
   81ee4:	1e282928 	fadd	s8, s9, s8
   81ee8:	1e220042 	scvtf	s2, w2
   81eec:	1e21280c 	fadd	s12, s0, s1
   81ef0:	1e213801 	fsub	s1, s0, s1
   81ef4:	1e232000 	fcmp	s0, s3
   81ef8:	1e390181 	fcvtzu	w1, s12
   81efc:	1e390020 	fcvtzu	w0, s1
   81f00:	1e230023 	ucvtf	s3, w1
   81f04:	1e230001 	ucvtf	s1, w0
   81f08:	1e203860 	fsub	s0, s3, s0
   81f0c:	1e23dc21 	fcsel	s1, s1, s3, le
   81f10:	1e390076 	fcvtzu	w22, s3
   81f14:	6b19035f 	cmp	w26, w25
   81f18:	1e2e1003 	fmov	s3, #1.000000000000000000e+00
   81f1c:	1f091000 	fmadd	s0, s0, s9, s4
   81f20:	1e21398c 	fsub	s12, s12, s1
   81f24:	1e390019 	fcvtzu	w25, s0
   81f28:	54002029 	b.ls	8232c <_ZN6screen9draw_lineE6vectorILj2EjES1_5color+0x88c>  // b.plast
   81f2c:	1e202018 	fcmpe	s0, #0.0
   81f30:	540040a4 	b.mi	82744 <_ZN6screen9draw_lineE6vectorILj2EjES1_5color+0xca4>  // b.first
   81f34:	1e233803 	fsub	s3, s0, s3
   81f38:	1e23032a 	ucvtf	s10, w25
   81f3c:	1e390060 	fcvtzu	w0, s3
   81f40:	1e230001 	ucvtf	s1, w0
   81f44:	1e2adc2a 	fcsel	s10, s1, s10, le
   81f48:	1e2a380a 	fsub	s10, s0, s10
   81f4c:	1e2e100b 	fmov	s11, #1.000000000000000000e+00
   81f50:	1e220980 	fmul	s0, s12, s2
   81f54:	b9400ae2 	ldr	w2, [x23, #8]
   81f58:	aa1503e0 	mov	x0, x21
   81f5c:	f9400ae9 	ldr	x9, [x23, #16]
   81f60:	1e2a3962 	fsub	s2, s11, s10
   81f64:	1b0266c2 	madd	w2, w22, w2, w25
   81f68:	1e200842 	fmul	s2, s2, s0
   81f6c:	d37ef442 	lsl	x2, x2, #2
   81f70:	8b02012a 	add	x10, x9, x2
   81f74:	1e390041 	fcvtzu	w1, s2
   81f78:	39026fa1 	strb	w1, [x29, #155]
   81f7c:	12001c28 	and	w8, w1, #0xff
   81f80:	2a2103e1 	mvn	w1, w1
   81f84:	b9409ba3 	ldr	w3, [x29, #152]
   81f88:	12001c21 	and	w1, w1, #0xff
   81f8c:	b900a3a3 	str	w3, [x29, #160]
   81f90:	38626923 	ldrb	w3, [x9, x2]
   81f94:	3902a3a3 	strb	w3, [x29, #168]
   81f98:	394287a5 	ldrb	w5, [x29, #161]
   81f9c:	12001c63 	and	w3, w3, #0xff
   81fa0:	39400547 	ldrb	w7, [x10, #1]
   81fa4:	394283a4 	ldrb	w4, [x29, #160]
   81fa8:	3902a7a7 	strb	w7, [x29, #169]
   81fac:	39428ba6 	ldrb	w6, [x29, #162]
   81fb0:	1b087ca7 	mul	w7, w5, w8
   81fb4:	3940094b 	ldrb	w11, [x10, #2]
   81fb8:	3942a7a5 	ldrb	w5, [x29, #169]
   81fbc:	1b087c84 	mul	w4, w4, w8
   81fc0:	1b011063 	madd	w3, w3, w1, w4
   81fc4:	12001d64 	and	w4, w11, #0xff
   81fc8:	1b087cc6 	mul	w6, w6, w8
   81fcc:	3902abab 	strb	w11, [x29, #170]
   81fd0:	1b011ca5 	madd	w5, w5, w1, w7
   81fd4:	39400d48 	ldrb	w8, [x10, #3]
   81fd8:	1b011881 	madd	w1, w4, w1, w6
   81fdc:	3902afa8 	strb	w8, [x29, #171]
   81fe0:	53087c63 	lsr	w3, w3, #8
   81fe4:	3902a3a3 	strb	w3, [x29, #168]
   81fe8:	53087ca4 	lsr	w4, w5, #8
   81fec:	3902a7a4 	strb	w4, [x29, #169]
   81ff0:	53087c21 	lsr	w1, w1, #8
   81ff4:	3902aba1 	strb	w1, [x29, #170]
   81ff8:	38226923 	strb	w3, [x9, x2]
   81ffc:	3942a7a1 	ldrb	w1, [x29, #169]
   82000:	39000541 	strb	w1, [x10, #1]
   82004:	3942aba1 	ldrb	w1, [x29, #170]
   82008:	39000941 	strb	w1, [x10, #2]
   8200c:	3942afa1 	ldrb	w1, [x29, #171]
   82010:	39000d41 	strb	w1, [x10, #3]
   82014:	940002d7 	bl	82b70 <_ZN5colorD1Ev>
   82018:	aa1403e0 	mov	x0, x20
   8201c:	940002d5 	bl	82b70 <_ZN5colorD1Ev>
   82020:	39400e61 	ldrb	w1, [x19, #3]
   82024:	aa1503e0 	mov	x0, x21
   82028:	b9400ae2 	ldr	w2, [x23, #8]
   8202c:	f9400ae5 	ldr	x5, [x23, #16]
   82030:	1e220020 	scvtf	s0, w1
   82034:	1b0266d9 	madd	w25, w22, w2, w25
   82038:	1e2c0800 	fmul	s0, s0, s12
   8203c:	11000739 	add	w25, w25, #0x1
   82040:	d37ef739 	lsl	x25, x25, #2
   82044:	8b1900a9 	add	x9, x5, x25
   82048:	1e2a0800 	fmul	s0, s0, s10
   8204c:	1e390001 	fcvtzu	w1, s0
   82050:	39026fa1 	strb	w1, [x29, #155]
   82054:	12001c28 	and	w8, w1, #0xff
   82058:	2a2103e1 	mvn	w1, w1
   8205c:	b9409ba2 	ldr	w2, [x29, #152]
   82060:	12001c21 	and	w1, w1, #0xff
   82064:	b900a3a2 	str	w2, [x29, #160]
   82068:	387968a2 	ldrb	w2, [x5, x25]
   8206c:	3902a3a2 	strb	w2, [x29, #168]
   82070:	394287a4 	ldrb	w4, [x29, #161]
   82074:	12001c42 	and	w2, w2, #0xff
   82078:	39400527 	ldrb	w7, [x9, #1]
   8207c:	394283a3 	ldrb	w3, [x29, #160]
   82080:	3902a7a7 	strb	w7, [x29, #169]
   82084:	39428ba6 	ldrb	w6, [x29, #162]
   82088:	1b087c87 	mul	w7, w4, w8
   8208c:	3940092a 	ldrb	w10, [x9, #2]
   82090:	3942a7a4 	ldrb	w4, [x29, #169]
   82094:	1b087c63 	mul	w3, w3, w8
   82098:	1b010c42 	madd	w2, w2, w1, w3
   8209c:	12001d43 	and	w3, w10, #0xff
   820a0:	1b087cc6 	mul	w6, w6, w8
   820a4:	3902abaa 	strb	w10, [x29, #170]
   820a8:	1b011c84 	madd	w4, w4, w1, w7
   820ac:	39400d28 	ldrb	w8, [x9, #3]
   820b0:	1b011861 	madd	w1, w3, w1, w6
   820b4:	3902afa8 	strb	w8, [x29, #171]
   820b8:	53087c42 	lsr	w2, w2, #8
   820bc:	3902a3a2 	strb	w2, [x29, #168]
   820c0:	53087c83 	lsr	w3, w4, #8
   820c4:	3902a7a3 	strb	w3, [x29, #169]
   820c8:	53087c21 	lsr	w1, w1, #8
   820cc:	3902aba1 	strb	w1, [x29, #170]
   820d0:	383968a2 	strb	w2, [x5, x25]
   820d4:	3942a7a1 	ldrb	w1, [x29, #169]
   820d8:	39000521 	strb	w1, [x9, #1]
   820dc:	3942aba1 	ldrb	w1, [x29, #170]
   820e0:	39000921 	strb	w1, [x9, #2]
   820e4:	3942afa1 	ldrb	w1, [x29, #171]
   820e8:	39000d21 	strb	w1, [x9, #3]
   820ec:	940002a1 	bl	82b70 <_ZN5colorD1Ev>
   820f0:	aa1403e0 	mov	x0, x20
   820f4:	9400029f 	bl	82b70 <_ZN5colorD1Ev>
   820f8:	6b1802df 	cmp	w22, w24
   820fc:	54000e68 	b.hi	822c8 <_ZN6screen9draw_lineE6vectorILj2EjES1_5color+0x828>  // b.pmore
   82100:	1400007f 	b	822fc <_ZN6screen9draw_lineE6vectorILj2EjES1_5color+0x85c>
   82104:	1e390040 	fcvtzu	w0, s2
   82108:	1e230320 	ucvtf	s0, w25
   8210c:	1e23000a 	ucvtf	s10, w0
   82110:	1e2acc00 	fcsel	s0, s0, s10, gt
   82114:	1e20390a 	fsub	s10, s8, s0
   82118:	1e2a3961 	fsub	s1, s11, s10
   8211c:	b9400ae3 	ldr	w3, [x23, #8]
   82120:	f9400ae9 	ldr	x9, [x23, #16]
   82124:	1e292908 	fadd	s8, s8, s9
   82128:	aa1503e0 	mov	x0, x21
   8212c:	1e230821 	fmul	s1, s1, s3
   82130:	1b036703 	madd	w3, w24, w3, w25
   82134:	d37ef463 	lsl	x3, x3, #2
   82138:	8b03012a 	add	x10, x9, x3
   8213c:	1e390021 	fcvtzu	w1, s1
   82140:	39026fa1 	strb	w1, [x29, #155]
   82144:	12001c28 	and	w8, w1, #0xff
   82148:	2a2103e1 	mvn	w1, w1
   8214c:	b9409ba2 	ldr	w2, [x29, #152]
   82150:	12001c21 	and	w1, w1, #0xff
   82154:	b900a3a2 	str	w2, [x29, #160]
   82158:	38636924 	ldrb	w4, [x9, x3]
   8215c:	3902a3a4 	strb	w4, [x29, #168]
   82160:	394287a6 	ldrb	w6, [x29, #161]
   82164:	12001c84 	and	w4, w4, #0xff
   82168:	39400547 	ldrb	w7, [x10, #1]
   8216c:	394283a5 	ldrb	w5, [x29, #160]
   82170:	3902a7a7 	strb	w7, [x29, #169]
   82174:	39428ba2 	ldrb	w2, [x29, #162]
   82178:	1b087cc7 	mul	w7, w6, w8
   8217c:	3940094b 	ldrb	w11, [x10, #2]
   82180:	3942a7a6 	ldrb	w6, [x29, #169]
   82184:	1b087ca5 	mul	w5, w5, w8
   82188:	1b011484 	madd	w4, w4, w1, w5
   8218c:	12001d65 	and	w5, w11, #0xff
   82190:	1b087c42 	mul	w2, w2, w8
   82194:	3902abab 	strb	w11, [x29, #170]
   82198:	1b011cc6 	madd	w6, w6, w1, w7
   8219c:	39400d48 	ldrb	w8, [x10, #3]
   821a0:	1b0108a1 	madd	w1, w5, w1, w2
   821a4:	3902afa8 	strb	w8, [x29, #171]
   821a8:	53087c84 	lsr	w4, w4, #8
   821ac:	3902a3a4 	strb	w4, [x29, #168]
   821b0:	53087cc5 	lsr	w5, w6, #8
   821b4:	3902a7a5 	strb	w5, [x29, #169]
   821b8:	53087c21 	lsr	w1, w1, #8
   821bc:	3902aba1 	strb	w1, [x29, #170]
   821c0:	38236924 	strb	w4, [x9, x3]
   821c4:	3942a7a1 	ldrb	w1, [x29, #169]
   821c8:	39000541 	strb	w1, [x10, #1]
   821cc:	3942aba1 	ldrb	w1, [x29, #170]
   821d0:	39000941 	strb	w1, [x10, #2]
   821d4:	3942afa1 	ldrb	w1, [x29, #171]
   821d8:	39000d41 	strb	w1, [x10, #3]
   821dc:	94000265 	bl	82b70 <_ZN5colorD1Ev>
   821e0:	aa1403e0 	mov	x0, x20
   821e4:	94000263 	bl	82b70 <_ZN5colorD1Ev>
   821e8:	39400e61 	ldrb	w1, [x19, #3]
   821ec:	aa1503e0 	mov	x0, x21
   821f0:	b9400ae2 	ldr	w2, [x23, #8]
   821f4:	f9400ae6 	ldr	x6, [x23, #16]
   821f8:	1e220020 	scvtf	s0, w1
   821fc:	1b026702 	madd	w2, w24, w2, w25
   82200:	11000718 	add	w24, w24, #0x1
   82204:	1e2a0800 	fmul	s0, s0, s10
   82208:	11000442 	add	w2, w2, #0x1
   8220c:	d37ef442 	lsl	x2, x2, #2
   82210:	8b0200ca 	add	x10, x6, x2
   82214:	1e390001 	fcvtzu	w1, s0
   82218:	39026fa1 	strb	w1, [x29, #155]
   8221c:	12001c29 	and	w9, w1, #0xff
   82220:	2a2103e1 	mvn	w1, w1
   82224:	b9409ba3 	ldr	w3, [x29, #152]
   82228:	12001c21 	and	w1, w1, #0xff
   8222c:	b900a3a3 	str	w3, [x29, #160]
   82230:	386268c3 	ldrb	w3, [x6, x2]
   82234:	3902a3a3 	strb	w3, [x29, #168]
   82238:	394287a5 	ldrb	w5, [x29, #161]
   8223c:	12001c63 	and	w3, w3, #0xff
   82240:	39400548 	ldrb	w8, [x10, #1]
   82244:	394283a4 	ldrb	w4, [x29, #160]
   82248:	3902a7a8 	strb	w8, [x29, #169]
   8224c:	39428ba7 	ldrb	w7, [x29, #162]
   82250:	1b097ca8 	mul	w8, w5, w9
   82254:	3940094b 	ldrb	w11, [x10, #2]
   82258:	3942a7a5 	ldrb	w5, [x29, #169]
   8225c:	1b097c84 	mul	w4, w4, w9
   82260:	1b011063 	madd	w3, w3, w1, w4
   82264:	12001d64 	and	w4, w11, #0xff
   82268:	1b097ce7 	mul	w7, w7, w9
   8226c:	3902abab 	strb	w11, [x29, #170]
   82270:	1b0120a5 	madd	w5, w5, w1, w8
   82274:	39400d49 	ldrb	w9, [x10, #3]
   82278:	1b011c81 	madd	w1, w4, w1, w7
   8227c:	3902afa9 	strb	w9, [x29, #171]
   82280:	53087c63 	lsr	w3, w3, #8
   82284:	3902a3a3 	strb	w3, [x29, #168]
   82288:	53087ca4 	lsr	w4, w5, #8
   8228c:	3902a7a4 	strb	w4, [x29, #169]
   82290:	53087c21 	lsr	w1, w1, #8
   82294:	3902aba1 	strb	w1, [x29, #170]
   82298:	382268c3 	strb	w3, [x6, x2]
   8229c:	3942a7a1 	ldrb	w1, [x29, #169]
   822a0:	39000541 	strb	w1, [x10, #1]
   822a4:	3942aba1 	ldrb	w1, [x29, #170]
   822a8:	39000941 	strb	w1, [x10, #2]
   822ac:	3942afa1 	ldrb	w1, [x29, #171]
   822b0:	39000d41 	strb	w1, [x10, #3]
   822b4:	9400022f 	bl	82b70 <_ZN5colorD1Ev>
   822b8:	aa1403e0 	mov	x0, x20
   822bc:	9400022d 	bl	82b70 <_ZN5colorD1Ev>
   822c0:	6b1802df 	cmp	w22, w24
   822c4:	540001c0 	b.eq	822fc <_ZN6screen9draw_lineE6vectorILj2EjES1_5color+0x85c>  // b.none
   822c8:	1e202118 	fcmpe	s8, #0.0
   822cc:	39400e60 	ldrb	w0, [x19, #3]
   822d0:	1e2b3902 	fsub	s2, s8, s11
   822d4:	1e390119 	fcvtzu	w25, s8
   822d8:	1e220003 	scvtf	s3, w0
   822dc:	54fff145 	b.pl	82104 <_ZN6screen9draw_lineE6vectorILj2EjES1_5color+0x664>  // b.nfrst
   822e0:	1e390040 	fcvtzu	w0, s2
   822e4:	1e23032a 	ucvtf	s10, w25
   822e8:	1e283960 	fsub	s0, s11, s8
   822ec:	1e230001 	ucvtf	s1, w0
   822f0:	1e21cd4a 	fcsel	s10, s10, s1, gt
   822f4:	1e2a280a 	fadd	s10, s0, s10
   822f8:	17ffff88 	b	82118 <_ZN6screen9draw_lineE6vectorILj2EjES1_5color+0x678>
   822fc:	910263a0 	add	x0, x29, #0x98
   82300:	9400021c 	bl	82b70 <_ZN5colorD1Ev>
   82304:	a94153f3 	ldp	x19, x20, [sp, #16]
   82308:	a9425bf5 	ldp	x21, x22, [sp, #32]
   8230c:	a94363f7 	ldp	x23, x24, [sp, #48]
   82310:	a9446bf9 	ldp	x25, x26, [sp, #64]
   82314:	a94573fb 	ldp	x27, x28, [sp, #80]
   82318:	6d4627e8 	ldp	d8, d9, [sp, #96]
   8231c:	6d472fea 	ldp	d10, d11, [sp, #112]
   82320:	fd4043ec 	ldr	d12, [sp, #128]
   82324:	a8cb7bfd 	ldp	x29, x30, [sp], #176
   82328:	d65f03c0 	ret
   8232c:	1e202018 	fcmpe	s0, #0.0
   82330:	540021e4 	b.mi	8276c <_ZN6screen9draw_lineE6vectorILj2EjES1_5color+0xccc>  // b.first
   82334:	1e233803 	fsub	s3, s0, s3
   82338:	1e23032a 	ucvtf	s10, w25
   8233c:	1e390060 	fcvtzu	w0, s3
   82340:	1e230001 	ucvtf	s1, w0
   82344:	1e2adc2a 	fcsel	s10, s1, s10, le
   82348:	1e2a380a 	fsub	s10, s0, s10
   8234c:	1e2e100b 	fmov	s11, #1.000000000000000000e+00
   82350:	1e220980 	fmul	s0, s12, s2
   82354:	b9400ae5 	ldr	w5, [x23, #8]
   82358:	aa1503e0 	mov	x0, x21
   8235c:	f9400ae9 	ldr	x9, [x23, #16]
   82360:	1e2a3962 	fsub	s2, s11, s10
   82364:	1b055b25 	madd	w5, w25, w5, w22
   82368:	1e200842 	fmul	s2, s2, s0
   8236c:	d37ef4a5 	lsl	x5, x5, #2
   82370:	8b05012a 	add	x10, x9, x5
   82374:	1e390041 	fcvtzu	w1, s2
   82378:	39026fa1 	strb	w1, [x29, #155]
   8237c:	12001c28 	and	w8, w1, #0xff
   82380:	2a2103e1 	mvn	w1, w1
   82384:	b9409ba2 	ldr	w2, [x29, #152]
   82388:	12001c21 	and	w1, w1, #0xff
   8238c:	b900a3a2 	str	w2, [x29, #160]
   82390:	38656922 	ldrb	w2, [x9, x5]
   82394:	3902a3a2 	strb	w2, [x29, #168]
   82398:	394287a4 	ldrb	w4, [x29, #161]
   8239c:	12001c42 	and	w2, w2, #0xff
   823a0:	39400547 	ldrb	w7, [x10, #1]
   823a4:	394283a3 	ldrb	w3, [x29, #160]
   823a8:	3902a7a7 	strb	w7, [x29, #169]
   823ac:	39428ba6 	ldrb	w6, [x29, #162]
   823b0:	1b087c87 	mul	w7, w4, w8
   823b4:	3940094b 	ldrb	w11, [x10, #2]
   823b8:	3942a7a4 	ldrb	w4, [x29, #169]
   823bc:	1b087c63 	mul	w3, w3, w8
   823c0:	1b010c42 	madd	w2, w2, w1, w3
   823c4:	12001d63 	and	w3, w11, #0xff
   823c8:	1b087cc6 	mul	w6, w6, w8
   823cc:	3902abab 	strb	w11, [x29, #170]
   823d0:	1b011c84 	madd	w4, w4, w1, w7
   823d4:	39400d48 	ldrb	w8, [x10, #3]
   823d8:	1b011861 	madd	w1, w3, w1, w6
   823dc:	3902afa8 	strb	w8, [x29, #171]
   823e0:	53087c42 	lsr	w2, w2, #8
   823e4:	3902a3a2 	strb	w2, [x29, #168]
   823e8:	53087c83 	lsr	w3, w4, #8
   823ec:	3902a7a3 	strb	w3, [x29, #169]
   823f0:	53087c21 	lsr	w1, w1, #8
   823f4:	3902aba1 	strb	w1, [x29, #170]
   823f8:	38256922 	strb	w2, [x9, x5]
   823fc:	3942a7a1 	ldrb	w1, [x29, #169]
   82400:	39000541 	strb	w1, [x10, #1]
   82404:	3942aba1 	ldrb	w1, [x29, #170]
   82408:	39000941 	strb	w1, [x10, #2]
   8240c:	3942afa1 	ldrb	w1, [x29, #171]
   82410:	39000d41 	strb	w1, [x10, #3]
   82414:	940001d7 	bl	82b70 <_ZN5colorD1Ev>
   82418:	aa1403e0 	mov	x0, x20
   8241c:	940001d5 	bl	82b70 <_ZN5colorD1Ev>
   82420:	39400e61 	ldrb	w1, [x19, #3]
   82424:	110006c2 	add	w2, w22, #0x1
   82428:	b9400ae3 	ldr	w3, [x23, #8]
   8242c:	aa1503e0 	mov	x0, x21
   82430:	f9400ae5 	ldr	x5, [x23, #16]
   82434:	1e220020 	scvtf	s0, w1
   82438:	1b030b39 	madd	w25, w25, w3, w2
   8243c:	1e2c0800 	fmul	s0, s0, s12
   82440:	d37ef739 	lsl	x25, x25, #2
   82444:	8b1900a9 	add	x9, x5, x25
   82448:	1e2a0800 	fmul	s0, s0, s10
   8244c:	1e390001 	fcvtzu	w1, s0
   82450:	39026fa1 	strb	w1, [x29, #155]
   82454:	12001c28 	and	w8, w1, #0xff
   82458:	2a2103e1 	mvn	w1, w1
   8245c:	b9409ba2 	ldr	w2, [x29, #152]
   82460:	12001c21 	and	w1, w1, #0xff
   82464:	b900a3a2 	str	w2, [x29, #160]
   82468:	387968a2 	ldrb	w2, [x5, x25]
   8246c:	3902a3a2 	strb	w2, [x29, #168]
   82470:	394287a4 	ldrb	w4, [x29, #161]
   82474:	12001c42 	and	w2, w2, #0xff
   82478:	39400527 	ldrb	w7, [x9, #1]
   8247c:	394283a3 	ldrb	w3, [x29, #160]
   82480:	3902a7a7 	strb	w7, [x29, #169]
   82484:	39428ba6 	ldrb	w6, [x29, #162]
   82488:	1b087c87 	mul	w7, w4, w8
   8248c:	3940092a 	ldrb	w10, [x9, #2]
   82490:	3942a7a4 	ldrb	w4, [x29, #169]
   82494:	1b087c63 	mul	w3, w3, w8
   82498:	1b010c42 	madd	w2, w2, w1, w3
   8249c:	12001d43 	and	w3, w10, #0xff
   824a0:	1b087cc6 	mul	w6, w6, w8
   824a4:	3902abaa 	strb	w10, [x29, #170]
   824a8:	1b011c84 	madd	w4, w4, w1, w7
   824ac:	39400d28 	ldrb	w8, [x9, #3]
   824b0:	1b011861 	madd	w1, w3, w1, w6
   824b4:	3902afa8 	strb	w8, [x29, #171]
   824b8:	53087c42 	lsr	w2, w2, #8
   824bc:	3902a3a2 	strb	w2, [x29, #168]
   824c0:	53087c83 	lsr	w3, w4, #8
   824c4:	3902a7a3 	strb	w3, [x29, #169]
   824c8:	53087c21 	lsr	w1, w1, #8
   824cc:	3902aba1 	strb	w1, [x29, #170]
   824d0:	383968a2 	strb	w2, [x5, x25]
   824d4:	3942a7a1 	ldrb	w1, [x29, #169]
   824d8:	39000521 	strb	w1, [x9, #1]
   824dc:	3942aba1 	ldrb	w1, [x29, #170]
   824e0:	39000921 	strb	w1, [x9, #2]
   824e4:	3942afa1 	ldrb	w1, [x29, #171]
   824e8:	39000d21 	strb	w1, [x9, #3]
   824ec:	940001a1 	bl	82b70 <_ZN5colorD1Ev>
   824f0:	aa1403e0 	mov	x0, x20
   824f4:	9400019f 	bl	82b70 <_ZN5colorD1Ev>
   824f8:	6b1802df 	cmp	w22, w24
   824fc:	54000e68 	b.hi	826c8 <_ZN6screen9draw_lineE6vectorILj2EjES1_5color+0xc28>  // b.pmore
   82500:	17ffff7f 	b	822fc <_ZN6screen9draw_lineE6vectorILj2EjES1_5color+0x85c>
   82504:	1e390040 	fcvtzu	w0, s2
   82508:	1e230320 	ucvtf	s0, w25
   8250c:	1e23000a 	ucvtf	s10, w0
   82510:	1e2acc00 	fcsel	s0, s0, s10, gt
   82514:	1e20390a 	fsub	s10, s8, s0
   82518:	1e2a3961 	fsub	s1, s11, s10
   8251c:	b9400ae6 	ldr	w6, [x23, #8]
   82520:	f9400ae9 	ldr	x9, [x23, #16]
   82524:	1e292908 	fadd	s8, s8, s9
   82528:	aa1503e0 	mov	x0, x21
   8252c:	1e230821 	fmul	s1, s1, s3
   82530:	1b066326 	madd	w6, w25, w6, w24
   82534:	d37ef4c6 	lsl	x6, x6, #2
   82538:	8b06012a 	add	x10, x9, x6
   8253c:	1e390021 	fcvtzu	w1, s1
   82540:	39026fa1 	strb	w1, [x29, #155]
   82544:	12001c28 	and	w8, w1, #0xff
   82548:	2a2103e1 	mvn	w1, w1
   8254c:	b9409ba2 	ldr	w2, [x29, #152]
   82550:	12001c21 	and	w1, w1, #0xff
   82554:	b900a3a2 	str	w2, [x29, #160]
   82558:	38666923 	ldrb	w3, [x9, x6]
   8255c:	3902a3a3 	strb	w3, [x29, #168]
   82560:	394287a5 	ldrb	w5, [x29, #161]
   82564:	12001c63 	and	w3, w3, #0xff
   82568:	39400547 	ldrb	w7, [x10, #1]
   8256c:	394283a4 	ldrb	w4, [x29, #160]
   82570:	3902a7a7 	strb	w7, [x29, #169]
   82574:	39428ba2 	ldrb	w2, [x29, #162]
   82578:	1b087ca7 	mul	w7, w5, w8
   8257c:	3940094b 	ldrb	w11, [x10, #2]
   82580:	3942a7a5 	ldrb	w5, [x29, #169]
   82584:	1b087c84 	mul	w4, w4, w8
   82588:	1b011063 	madd	w3, w3, w1, w4
   8258c:	12001d64 	and	w4, w11, #0xff
   82590:	1b087c42 	mul	w2, w2, w8
   82594:	3902abab 	strb	w11, [x29, #170]
   82598:	1b011ca5 	madd	w5, w5, w1, w7
   8259c:	39400d48 	ldrb	w8, [x10, #3]
   825a0:	1b010881 	madd	w1, w4, w1, w2
   825a4:	3902afa8 	strb	w8, [x29, #171]
   825a8:	53087c63 	lsr	w3, w3, #8
   825ac:	3902a3a3 	strb	w3, [x29, #168]
   825b0:	53087ca4 	lsr	w4, w5, #8
   825b4:	3902a7a4 	strb	w4, [x29, #169]
   825b8:	53087c21 	lsr	w1, w1, #8
   825bc:	3902aba1 	strb	w1, [x29, #170]
   825c0:	38266923 	strb	w3, [x9, x6]
   825c4:	3942a7a1 	ldrb	w1, [x29, #169]
   825c8:	39000541 	strb	w1, [x10, #1]
   825cc:	3942aba1 	ldrb	w1, [x29, #170]
   825d0:	39000941 	strb	w1, [x10, #2]
   825d4:	3942afa1 	ldrb	w1, [x29, #171]
   825d8:	39000d41 	strb	w1, [x10, #3]
   825dc:	94000165 	bl	82b70 <_ZN5colorD1Ev>
   825e0:	aa1403e0 	mov	x0, x20
   825e4:	94000163 	bl	82b70 <_ZN5colorD1Ev>
   825e8:	39400e61 	ldrb	w1, [x19, #3]
   825ec:	aa1503e0 	mov	x0, x21
   825f0:	b9400ae2 	ldr	w2, [x23, #8]
   825f4:	f9400ae6 	ldr	x6, [x23, #16]
   825f8:	1e220020 	scvtf	s0, w1
   825fc:	1b020b22 	madd	w2, w25, w2, w2
   82600:	1e2a0800 	fmul	s0, s0, s10
   82604:	0b180042 	add	w2, w2, w24
   82608:	d37ef442 	lsl	x2, x2, #2
   8260c:	11000718 	add	w24, w24, #0x1
   82610:	8b0200ca 	add	x10, x6, x2
   82614:	1e390001 	fcvtzu	w1, s0
   82618:	39026fa1 	strb	w1, [x29, #155]
   8261c:	12001c29 	and	w9, w1, #0xff
   82620:	2a2103e1 	mvn	w1, w1
   82624:	b9409ba3 	ldr	w3, [x29, #152]
   82628:	12001c21 	and	w1, w1, #0xff
   8262c:	b900a3a3 	str	w3, [x29, #160]
   82630:	386268c3 	ldrb	w3, [x6, x2]
   82634:	3902a3a3 	strb	w3, [x29, #168]
   82638:	394287a5 	ldrb	w5, [x29, #161]
   8263c:	12001c63 	and	w3, w3, #0xff
   82640:	39400548 	ldrb	w8, [x10, #1]
   82644:	394283a4 	ldrb	w4, [x29, #160]
   82648:	3902a7a8 	strb	w8, [x29, #169]
   8264c:	39428ba7 	ldrb	w7, [x29, #162]
   82650:	1b097ca8 	mul	w8, w5, w9
   82654:	3940094b 	ldrb	w11, [x10, #2]
   82658:	3942a7a5 	ldrb	w5, [x29, #169]
   8265c:	1b097c84 	mul	w4, w4, w9
   82660:	1b011063 	madd	w3, w3, w1, w4
   82664:	12001d64 	and	w4, w11, #0xff
   82668:	1b097ce7 	mul	w7, w7, w9
   8266c:	3902abab 	strb	w11, [x29, #170]
   82670:	1b0120a5 	madd	w5, w5, w1, w8
   82674:	39400d49 	ldrb	w9, [x10, #3]
   82678:	1b011c81 	madd	w1, w4, w1, w7
   8267c:	3902afa9 	strb	w9, [x29, #171]
   82680:	53087c63 	lsr	w3, w3, #8
   82684:	3902a3a3 	strb	w3, [x29, #168]
   82688:	53087ca4 	lsr	w4, w5, #8
   8268c:	3902a7a4 	strb	w4, [x29, #169]
   82690:	53087c21 	lsr	w1, w1, #8
   82694:	3902aba1 	strb	w1, [x29, #170]
   82698:	382268c3 	strb	w3, [x6, x2]
   8269c:	3942a7a1 	ldrb	w1, [x29, #169]
   826a0:	39000541 	strb	w1, [x10, #1]
   826a4:	3942aba1 	ldrb	w1, [x29, #170]
   826a8:	39000941 	strb	w1, [x10, #2]
   826ac:	3942afa1 	ldrb	w1, [x29, #171]
   826b0:	39000d41 	strb	w1, [x10, #3]
   826b4:	9400012f 	bl	82b70 <_ZN5colorD1Ev>
   826b8:	aa1403e0 	mov	x0, x20
   826bc:	9400012d 	bl	82b70 <_ZN5colorD1Ev>
   826c0:	6b1802df 	cmp	w22, w24
   826c4:	54ffe1c0 	b.eq	822fc <_ZN6screen9draw_lineE6vectorILj2EjES1_5color+0x85c>  // b.none
   826c8:	1e202118 	fcmpe	s8, #0.0
   826cc:	39400e60 	ldrb	w0, [x19, #3]
   826d0:	1e2b3902 	fsub	s2, s8, s11
   826d4:	1e390119 	fcvtzu	w25, s8
   826d8:	1e220003 	scvtf	s3, w0
   826dc:	54fff145 	b.pl	82504 <_ZN6screen9draw_lineE6vectorILj2EjES1_5color+0xa64>  // b.nfrst
   826e0:	1e390040 	fcvtzu	w0, s2
   826e4:	1e23032a 	ucvtf	s10, w25
   826e8:	1e283960 	fsub	s0, s11, s8
   826ec:	1e230001 	ucvtf	s1, w0
   826f0:	1e21cd4a 	fcsel	s10, s10, s1, gt
   826f4:	1e2a280a 	fadd	s10, s0, s10
   826f8:	17ffff88 	b	82518 <_ZN6screen9draw_lineE6vectorILj2EjES1_5color+0xa78>
   826fc:	1e213900 	fsub	s0, s8, s1
   82700:	1e23036b 	ucvtf	s11, w27
   82704:	1e202108 	fcmp	s8, #0.0
   82708:	1e283821 	fsub	s1, s1, s8
   8270c:	1e390000 	fcvtzu	w0, s0
   82710:	1e230000 	ucvtf	s0, w0
   82714:	1e2bdc0b 	fcsel	s11, s0, s11, le
   82718:	1e2b282b 	fadd	s11, s1, s11
   8271c:	17fffd36 	b	81bf4 <_ZN6screen9draw_lineE6vectorILj2EjES1_5color+0x154>
   82720:	1e213900 	fsub	s0, s8, s1
   82724:	1e23036b 	ucvtf	s11, w27
   82728:	1e202108 	fcmp	s8, #0.0
   8272c:	1e283821 	fsub	s1, s1, s8
   82730:	1e390000 	fcvtzu	w0, s0
   82734:	1e230000 	ucvtf	s0, w0
   82738:	1e2bdc0b 	fcsel	s11, s0, s11, le
   8273c:	1e2b282b 	fadd	s11, s1, s11
   82740:	17fffd76 	b	81d18 <_ZN6screen9draw_lineE6vectorILj2EjES1_5color+0x278>
   82744:	1e20406a 	fmov	s10, s3
   82748:	1e233803 	fsub	s3, s0, s3
   8274c:	1e230321 	ucvtf	s1, w25
   82750:	1e203940 	fsub	s0, s10, s0
   82754:	1e390060 	fcvtzu	w0, s3
   82758:	1e20402a 	fmov	s10, s1
   8275c:	1e230001 	ucvtf	s1, w0
   82760:	1e2adc21 	fcsel	s1, s1, s10, le
   82764:	1e21280a 	fadd	s10, s0, s1
   82768:	17fffdf9 	b	81f4c <_ZN6screen9draw_lineE6vectorILj2EjES1_5color+0x4ac>
   8276c:	1e20406a 	fmov	s10, s3
   82770:	1e233803 	fsub	s3, s0, s3
   82774:	1e230321 	ucvtf	s1, w25
   82778:	1e203940 	fsub	s0, s10, s0
   8277c:	1e390060 	fcvtzu	w0, s3
   82780:	1e20402a 	fmov	s10, s1
   82784:	1e230001 	ucvtf	s1, w0
   82788:	1e2adc21 	fcsel	s1, s1, s10, le
   8278c:	1e21280a 	fadd	s10, s0, s1
   82790:	17fffeef 	b	8234c <_ZN6screen9draw_lineE6vectorILj2EjES1_5color+0x8ac>
   82794:	d503201f 	nop
   82798:	d503201f 	nop
   8279c:	d503201f 	nop

00000000000827a0 <_ZN6screen9draw_textEPKc6vectorILj2EjE>:
   827a0:	a9b87bfd 	stp	x29, x30, [sp, #-128]!
   827a4:	910003fd 	mov	x29, sp
   827a8:	f90023f9 	str	x25, [sp, #64]
   827ac:	aa0003f9 	mov	x25, x0
   827b0:	f9002ffc 	str	x28, [sp, #88]
   827b4:	aa0103fc 	mov	x28, x1
   827b8:	39400020 	ldrb	w0, [x1]
   827bc:	b9400041 	ldr	w1, [x2]
   827c0:	b90067a1 	str	w1, [x29, #100]
   827c4:	34000ca0 	cbz	w0, 82958 <_ZN6screen9draw_textEPKc6vectorILj2EjE+0x1b8>
   827c8:	a90153b3 	stp	x19, x20, [x29, #16]
   827cc:	b0000034 	adrp	x20, 87000 <_ZN13effect_chorusC1E9rectangle5color+0x270>
   827d0:	91228294 	add	x20, x20, #0x8a0
   827d4:	a9025bb5 	stp	x21, x22, [x29, #32]
   827d8:	a90363b7 	stp	x23, x24, [x29, #48]
   827dc:	a904efba 	stp	x26, x27, [x29, #72]
   827e0:	aa0203fb 	mov	x27, x2
   827e4:	14000006 	b	827fc <_ZN6screen9draw_textEPKc6vectorILj2EjE+0x5c>
   827e8:	b94067a0 	ldr	w0, [x29, #100]
   827ec:	11004821 	add	w1, w1, #0x12
   827f0:	29000760 	stp	w0, w1, [x27]
   827f4:	38401f80 	ldrb	w0, [x28, #1]!
   827f8:	34000a80 	cbz	w0, 82948 <_ZN6screen9draw_textEPKc6vectorILj2EjE+0x1a8>
   827fc:	7100281f 	cmp	w0, #0xa
   82800:	b9400761 	ldr	w1, [x27, #4]
   82804:	7a4d1804 	ccmp	w0, #0xd, #0x4, ne  // ne = any
   82808:	54ffff00 	b.eq	827e8 <_ZN6screen9draw_textEPKc6vectorILj2EjE+0x48>  // b.none
   8280c:	52800013 	mov	w19, #0x0                   	// #0
   82810:	d2800176 	mov	x22, #0xb                   	// #11
   82814:	52801ff5 	mov	w21, #0xff                  	// #255
   82818:	2a1303e2 	mov	w2, w19
   8281c:	52800018 	mov	w24, #0x0                   	// #0
   82820:	f90037a2 	str	x2, [x29, #104]
   82824:	14000003 	b	82830 <_ZN6screen9draw_textEPKc6vectorILj2EjE+0x90>
   82828:	39400380 	ldrb	w0, [x28]
   8282c:	b9400761 	ldr	w1, [x27, #4]
   82830:	2a1803e4 	mov	w4, w24
   82834:	d28018c5 	mov	x5, #0xc6                  	// #198
   82838:	b940036b 	ldr	w11, [x27]
   8283c:	0b01031a 	add	w26, w24, w1
   82840:	52800003 	mov	w3, #0x0                   	// #0
   82844:	52800c82 	mov	w2, #0x64                  	// #100
   82848:	9b167c84 	mul	x4, x4, x22
   8284c:	0b0b0277 	add	w23, w19, w11
   82850:	9b051004 	madd	x4, x0, x5, x4
   82854:	f94037a5 	ldr	x5, [x29, #104]
   82858:	52800001 	mov	w1, #0x0                   	// #0
   8285c:	9101c3a0 	add	x0, x29, #0x70
   82860:	8b040284 	add	x4, x20, x4
   82864:	11000718 	add	w24, w24, #0x1
   82868:	38656884 	ldrb	w4, [x4, x5]
   8286c:	940000b9 	bl	82b50 <_ZN5colorC1Ehhhh>
   82870:	b9400b21 	ldr	w1, [x25, #8]
   82874:	9101e3a0 	add	x0, x29, #0x78
   82878:	3941cfa2 	ldrb	w2, [x29, #115]
   8287c:	3941cba4 	ldrb	w4, [x29, #114]
   82880:	3941c7a7 	ldrb	w7, [x29, #113]
   82884:	4b0202aa 	sub	w10, w21, w2
   82888:	1b015f41 	madd	w1, w26, w1, w23
   8288c:	3941c3a3 	ldrb	w3, [x29, #112]
   82890:	f9400b28 	ldr	x8, [x25, #16]
   82894:	1b027c89 	mul	w9, w4, w2
   82898:	d37ef421 	lsl	x1, x1, #2
   8289c:	1b027ceb 	mul	w11, w7, w2
   828a0:	1b027c64 	mul	w4, w3, w2
   828a4:	8b010102 	add	x2, x8, x1
   828a8:	38616903 	ldrb	w3, [x8, x1]
   828ac:	3901e3a3 	strb	w3, [x29, #120]
   828b0:	12001c63 	and	w3, w3, #0xff
   828b4:	39400447 	ldrb	w7, [x2, #1]
   828b8:	3901e7a7 	strb	w7, [x29, #121]
   828bc:	1b0a1063 	madd	w3, w3, w10, w4
   828c0:	12001ce7 	and	w7, w7, #0xff
   828c4:	3940084c 	ldrb	w12, [x2, #2]
   828c8:	3901ebac 	strb	w12, [x29, #122]
   828cc:	12001d84 	and	w4, w12, #0xff
   828d0:	1b0a2ce7 	madd	w7, w7, w10, w11
   828d4:	39400c4c 	ldrb	w12, [x2, #3]
   828d8:	53087c63 	lsr	w3, w3, #8
   828dc:	3901e3a3 	strb	w3, [x29, #120]
   828e0:	1b0a2484 	madd	w4, w4, w10, w9
   828e4:	3901efac 	strb	w12, [x29, #123]
   828e8:	53087ce7 	lsr	w7, w7, #8
   828ec:	3901e7a7 	strb	w7, [x29, #121]
   828f0:	53087c84 	lsr	w4, w4, #8
   828f4:	3901eba4 	strb	w4, [x29, #122]
   828f8:	38216903 	strb	w3, [x8, x1]
   828fc:	3941e7a1 	ldrb	w1, [x29, #121]
   82900:	39000441 	strb	w1, [x2, #1]
   82904:	3941eba1 	ldrb	w1, [x29, #122]
   82908:	39000841 	strb	w1, [x2, #2]
   8290c:	3941efa1 	ldrb	w1, [x29, #123]
   82910:	39000c41 	strb	w1, [x2, #3]
   82914:	94000097 	bl	82b70 <_ZN5colorD1Ev>
   82918:	9101c3a0 	add	x0, x29, #0x70
   8291c:	94000095 	bl	82b70 <_ZN5colorD1Ev>
   82920:	71004b1f 	cmp	w24, #0x12
   82924:	54fff821 	b.ne	82828 <_ZN6screen9draw_textEPKc6vectorILj2EjE+0x88>  // b.any
   82928:	11000673 	add	w19, w19, #0x1
   8292c:	71002e7f 	cmp	w19, #0xb
   82930:	540001c1 	b.ne	82968 <_ZN6screen9draw_textEPKc6vectorILj2EjE+0x1c8>  // b.any
   82934:	b9400360 	ldr	w0, [x27]
   82938:	11002c00 	add	w0, w0, #0xb
   8293c:	b9000360 	str	w0, [x27]
   82940:	38401f80 	ldrb	w0, [x28, #1]!
   82944:	35fff5c0 	cbnz	w0, 827fc <_ZN6screen9draw_textEPKc6vectorILj2EjE+0x5c>
   82948:	a94153b3 	ldp	x19, x20, [x29, #16]
   8294c:	a9425bb5 	ldp	x21, x22, [x29, #32]
   82950:	a94363b7 	ldp	x23, x24, [x29, #48]
   82954:	a944efba 	ldp	x26, x27, [x29, #72]
   82958:	f94023f9 	ldr	x25, [sp, #64]
   8295c:	f9402ffc 	ldr	x28, [sp, #88]
   82960:	a8c87bfd 	ldp	x29, x30, [sp], #128
   82964:	d65f03c0 	ret
   82968:	39400380 	ldrb	w0, [x28]
   8296c:	b9400761 	ldr	w1, [x27, #4]
   82970:	17ffffaa 	b	82818 <_ZN6screen9draw_textEPKc6vectorILj2EjE+0x78>
	...

0000000000082980 <_ZN13analog_buttonD1Ev>:
   82980:	f0000041 	adrp	x1, 8d000 <_ZN4font9monospaceE+0x5760>
   82984:	9131c021 	add	x1, x1, #0xc70
   82988:	f9000001 	str	x1, [x0]
   8298c:	14000039 	b	82a70 <_ZN6buttonD1Ev>

0000000000082990 <_ZN13analog_buttonD0Ev>:
   82990:	a9be7bfd 	stp	x29, x30, [sp, #-32]!
   82994:	f0000041 	adrp	x1, 8d000 <_ZN4font9monospaceE+0x5760>
   82998:	9131c021 	add	x1, x1, #0xc70
   8299c:	910003fd 	mov	x29, sp
   829a0:	f9000bf3 	str	x19, [sp, #16]
   829a4:	aa0003f3 	mov	x19, x0
   829a8:	f9000001 	str	x1, [x0]
   829ac:	94000031 	bl	82a70 <_ZN6buttonD1Ev>
   829b0:	aa1303e0 	mov	x0, x19
   829b4:	f9400bf3 	ldr	x19, [sp, #16]
   829b8:	a8c27bfd 	ldp	x29, x30, [sp], #32
   829bc:	d2800701 	mov	x1, #0x38                  	// #56
   829c0:	17fffba4 	b	81850 <_ZdlPvm>
   829c4:	d503201f 	nop
   829c8:	d503201f 	nop
   829cc:	d503201f 	nop

00000000000829d0 <_ZN13analog_buttonC1E9rectangle5color>:
   829d0:	aa0203e3 	mov	x3, x2
   829d4:	aa0103e4 	mov	x4, x1
   829d8:	a9bc7bfd 	stp	x29, x30, [sp, #-64]!
   829dc:	910003fd 	mov	x29, sp
   829e0:	3940006a 	ldrb	w10, [x3]
   829e4:	9100a3a2 	add	x2, x29, #0x28
   829e8:	39400469 	ldrb	w9, [x3, #1]
   829ec:	9100c3a1 	add	x1, x29, #0x30
   829f0:	39400868 	ldrb	w8, [x3, #2]
   829f4:	29401887 	ldp	w7, w6, [x4]
   829f8:	3900a3aa 	strb	w10, [x29, #40]
   829fc:	39400c63 	ldrb	w3, [x3, #3]
   82a00:	29411085 	ldp	w5, w4, [x4, #8]
   82a04:	3900a7a9 	strb	w9, [x29, #41]
   82a08:	f9000bf3 	str	x19, [sp, #16]
   82a0c:	aa0003f3 	mov	x19, x0
   82a10:	3900aba8 	strb	w8, [x29, #42]
   82a14:	3900afa3 	strb	w3, [x29, #43]
   82a18:	29061ba7 	stp	w7, w6, [x29, #48]
   82a1c:	290713a5 	stp	w5, w4, [x29, #56]
   82a20:	94000028 	bl	82ac0 <_ZN6buttonC1E9rectangle5color>
   82a24:	9100a3a0 	add	x0, x29, #0x28
   82a28:	94000052 	bl	82b70 <_ZN5colorD1Ev>
   82a2c:	9100c3a0 	add	x0, x29, #0x30
   82a30:	97fff98c 	bl	81060 <_ZN9rectangleD1Ev>
   82a34:	f0000040 	adrp	x0, 8d000 <_ZN4font9monospaceE+0x5760>
   82a38:	9131c000 	add	x0, x0, #0xc70
   82a3c:	f9000260 	str	x0, [x19]
   82a40:	f9001a7f 	str	xzr, [x19, #48]
   82a44:	f9400bf3 	ldr	x19, [sp, #16]
   82a48:	a8c47bfd 	ldp	x29, x30, [sp], #64
   82a4c:	d65f03c0 	ret

0000000000082a50 <_ZN13analog_button9get_valueEv>:
   82a50:	fd401800 	ldr	d0, [x0, #48]
   82a54:	d65f03c0 	ret
   82a58:	d503201f 	nop
   82a5c:	d503201f 	nop

0000000000082a60 <_ZN13analog_button9set_valueEd>:
   82a60:	fd001800 	str	d0, [x0, #48]
   82a64:	d65f03c0 	ret
	...

0000000000082a70 <_ZN6buttonD1Ev>:
   82a70:	f0000041 	adrp	x1, 8d000 <_ZN4font9monospaceE+0x5760>
   82a74:	91326021 	add	x1, x1, #0xc98
   82a78:	f9000001 	str	x1, [x0]
   82a7c:	140000d5 	b	82dd0 <_ZN14graphic_objectD1Ev>

0000000000082a80 <_ZN6buttonD0Ev>:
   82a80:	a9be7bfd 	stp	x29, x30, [sp, #-32]!
   82a84:	f0000041 	adrp	x1, 8d000 <_ZN4font9monospaceE+0x5760>
   82a88:	91326021 	add	x1, x1, #0xc98
   82a8c:	910003fd 	mov	x29, sp
   82a90:	f9000bf3 	str	x19, [sp, #16]
   82a94:	aa0003f3 	mov	x19, x0
   82a98:	f9000001 	str	x1, [x0]
   82a9c:	940000cd 	bl	82dd0 <_ZN14graphic_objectD1Ev>
   82aa0:	aa1303e0 	mov	x0, x19
   82aa4:	f9400bf3 	ldr	x19, [sp, #16]
   82aa8:	a8c27bfd 	ldp	x29, x30, [sp], #32
   82aac:	d2800601 	mov	x1, #0x30                  	// #48
   82ab0:	17fffb68 	b	81850 <_ZdlPvm>
   82ab4:	d503201f 	nop
   82ab8:	d503201f 	nop
   82abc:	d503201f 	nop

0000000000082ac0 <_ZN6buttonC1E9rectangle5color>:
   82ac0:	aa0203e3 	mov	x3, x2
   82ac4:	aa0103e4 	mov	x4, x1
   82ac8:	a9bc7bfd 	stp	x29, x30, [sp, #-64]!
   82acc:	910003fd 	mov	x29, sp
   82ad0:	3940006a 	ldrb	w10, [x3]
   82ad4:	9100a3a2 	add	x2, x29, #0x28
   82ad8:	39400469 	ldrb	w9, [x3, #1]
   82adc:	9100c3a1 	add	x1, x29, #0x30
   82ae0:	39400868 	ldrb	w8, [x3, #2]
   82ae4:	29401887 	ldp	w7, w6, [x4]
   82ae8:	3900a3aa 	strb	w10, [x29, #40]
   82aec:	39400c63 	ldrb	w3, [x3, #3]
   82af0:	29411085 	ldp	w5, w4, [x4, #8]
   82af4:	3900a7a9 	strb	w9, [x29, #41]
   82af8:	f9000bf3 	str	x19, [sp, #16]
   82afc:	aa0003f3 	mov	x19, x0
   82b00:	3900aba8 	strb	w8, [x29, #42]
   82b04:	3900afa3 	strb	w3, [x29, #43]
   82b08:	29061ba7 	stp	w7, w6, [x29, #48]
   82b0c:	290713a5 	stp	w5, w4, [x29, #56]
   82b10:	9400004c 	bl	82c40 <_ZN14graphic_objectC1E9rectangle5color>
   82b14:	9100a3a0 	add	x0, x29, #0x28
   82b18:	94000016 	bl	82b70 <_ZN5colorD1Ev>
   82b1c:	9100c3a0 	add	x0, x29, #0x30
   82b20:	97fff950 	bl	81060 <_ZN9rectangleD1Ev>
   82b24:	f0000040 	adrp	x0, 8d000 <_ZN4font9monospaceE+0x5760>
   82b28:	91326000 	add	x0, x0, #0xc98
   82b2c:	f9000260 	str	x0, [x19]
   82b30:	f9400bf3 	ldr	x19, [sp, #16]
   82b34:	a8c47bfd 	ldp	x29, x30, [sp], #64
   82b38:	d65f03c0 	ret
   82b3c:	00000000 	.inst	0x00000000 ; undefined

0000000000082b40 <_ZN5colorC1Ev>:
   82b40:	d65f03c0 	ret
   82b44:	d503201f 	nop
   82b48:	d503201f 	nop
   82b4c:	d503201f 	nop

0000000000082b50 <_ZN5colorC1Ehhhh>:
   82b50:	39000003 	strb	w3, [x0]
   82b54:	39000402 	strb	w2, [x0, #1]
   82b58:	39000801 	strb	w1, [x0, #2]
   82b5c:	39000c04 	strb	w4, [x0, #3]
   82b60:	d65f03c0 	ret
   82b64:	d503201f 	nop
   82b68:	d503201f 	nop
   82b6c:	d503201f 	nop

0000000000082b70 <_ZN5colorD1Ev>:
   82b70:	d65f03c0 	ret
	...

0000000000082b80 <_ZN14graphic_object4moveE6vectorILj2EjE>:
   82b80:	f9400c03 	ldr	x3, [x0, #24]
   82b84:	b9400804 	ldr	w4, [x0, #8]
   82b88:	b9400027 	ldr	w7, [x1]
   82b8c:	b9400062 	ldr	w2, [x3]
   82b90:	0b070086 	add	w6, w4, w7
   82b94:	6b0200df 	cmp	w6, w2
   82b98:	54000082 	b.cs	82ba8 <_ZN14graphic_object4moveE6vectorILj2EjE+0x28>  // b.hs, b.nlast
   82b9c:	2a0203e6 	mov	w6, w2
   82ba0:	4b040047 	sub	w7, w2, w4
   82ba4:	b9000027 	str	w7, [x1]
   82ba8:	b9401009 	ldr	w9, [x0, #16]
   82bac:	b940086a 	ldr	w10, [x3, #8]
   82bb0:	0b090085 	add	w5, w4, w9
   82bb4:	0b0700a5 	add	w5, w5, w7
   82bb8:	0b0a0042 	add	w2, w2, w10
   82bbc:	6b0200bf 	cmp	w5, w2
   82bc0:	540000a9 	b.ls	82bd4 <_ZN14graphic_object4moveE6vectorILj2EjE+0x54>  // b.plast
   82bc4:	4b040042 	sub	w2, w2, w4
   82bc8:	4b090042 	sub	w2, w2, w9
   82bcc:	b9000022 	str	w2, [x1]
   82bd0:	0b020086 	add	w6, w4, w2
   82bd4:	b9400c04 	ldr	w4, [x0, #12]
   82bd8:	b9400427 	ldr	w7, [x1, #4]
   82bdc:	b9400462 	ldr	w2, [x3, #4]
   82be0:	0b070085 	add	w5, w4, w7
   82be4:	6b0200bf 	cmp	w5, w2
   82be8:	54000082 	b.cs	82bf8 <_ZN14graphic_object4moveE6vectorILj2EjE+0x78>  // b.hs, b.nlast
   82bec:	2a0203e5 	mov	w5, w2
   82bf0:	4b040047 	sub	w7, w2, w4
   82bf4:	b9000427 	str	w7, [x1, #4]
   82bf8:	b9401409 	ldr	w9, [x0, #20]
   82bfc:	b9400c6a 	ldr	w10, [x3, #12]
   82c00:	0b090083 	add	w3, w4, w9
   82c04:	0b0a0042 	add	w2, w2, w10
   82c08:	0b070063 	add	w3, w3, w7
   82c0c:	6b02007f 	cmp	w3, w2
   82c10:	540000a9 	b.ls	82c24 <_ZN14graphic_object4moveE6vectorILj2EjE+0xa4>  // b.plast
   82c14:	4b040042 	sub	w2, w2, w4
   82c18:	4b090042 	sub	w2, w2, w9
   82c1c:	b9000422 	str	w2, [x1, #4]
   82c20:	0b020085 	add	w5, w4, w2
   82c24:	29011406 	stp	w6, w5, [x0, #8]
   82c28:	aa0803e0 	mov	x0, x8
   82c2c:	29400422 	ldp	w2, w1, [x1]
   82c30:	29000502 	stp	w2, w1, [x8]
   82c34:	d65f03c0 	ret
   82c38:	d503201f 	nop
   82c3c:	d503201f 	nop

0000000000082c40 <_ZN14graphic_objectC1E9rectangle5color>:
   82c40:	a9bc7bfd 	stp	x29, x30, [sp, #-64]!
   82c44:	910003fd 	mov	x29, sp
   82c48:	a90153f3 	stp	x19, x20, [sp, #16]
   82c4c:	aa0003f4 	mov	x20, x0
   82c50:	a9025bf5 	stp	x21, x22, [sp, #32]
   82c54:	aa0003f3 	mov	x19, x0
   82c58:	f9001bf7 	str	x23, [sp, #48]
   82c5c:	f0000040 	adrp	x0, 8d000 <_ZN4font9monospaceE+0x5760>
   82c60:	91330000 	add	x0, x0, #0xcc0
   82c64:	f8008680 	str	x0, [x20], #8
   82c68:	aa0103f7 	mov	x23, x1
   82c6c:	aa0203f6 	mov	x22, x2
   82c70:	9100a275 	add	x21, x19, #0x28
   82c74:	aa1403e0 	mov	x0, x20
   82c78:	97fff8f6 	bl	81050 <_ZN9rectangleC1Ev>
   82c7c:	aa1503e0 	mov	x0, x21
   82c80:	97ffffb0 	bl	82b40 <_ZN5colorC1Ev>
   82c84:	29400ae0 	ldp	w0, w2, [x23]
   82c88:	b9000a60 	str	w0, [x19, #8]
   82c8c:	b9400ae1 	ldr	w1, [x23, #8]
   82c90:	b9400ee0 	ldr	w0, [x23, #12]
   82c94:	f9401bf7 	ldr	x23, [sp, #48]
   82c98:	29008682 	stp	w2, w1, [x20, #4]
   82c9c:	b9000e80 	str	w0, [x20, #12]
   82ca0:	394002c0 	ldrb	w0, [x22]
   82ca4:	3900a260 	strb	w0, [x19, #40]
   82ca8:	394006c2 	ldrb	w2, [x22, #1]
   82cac:	39400ac1 	ldrb	w1, [x22, #2]
   82cb0:	39400ec0 	ldrb	w0, [x22, #3]
   82cb4:	3900a662 	strb	w2, [x19, #41]
   82cb8:	3900aa61 	strb	w1, [x19, #42]
   82cbc:	3900ae60 	strb	w0, [x19, #43]
   82cc0:	a9425bf5 	ldp	x21, x22, [sp, #32]
   82cc4:	a901fe7f 	stp	xzr, xzr, [x19, #24]
   82cc8:	a94153f3 	ldp	x19, x20, [sp, #16]
   82ccc:	a8c47bfd 	ldp	x29, x30, [sp], #64
   82cd0:	d65f03c0 	ret
   82cd4:	d503201f 	nop
   82cd8:	d503201f 	nop
   82cdc:	d503201f 	nop

0000000000082ce0 <_ZN14graphic_object14set_boundariesEP9rectangle>:
   82ce0:	b9400802 	ldr	w2, [x0, #8]
   82ce4:	b9401003 	ldr	w3, [x0, #16]
   82ce8:	b9400824 	ldr	w4, [x1, #8]
   82cec:	0b030043 	add	w3, w2, w3
   82cf0:	6b04007f 	cmp	w3, w4
   82cf4:	54000069 	b.ls	82d00 <_ZN14graphic_object14set_boundariesEP9rectangle+0x20>  // b.plast
   82cf8:	4b020084 	sub	w4, w4, w2
   82cfc:	b9001004 	str	w4, [x0, #16]
   82d00:	b9400c04 	ldr	w4, [x0, #12]
   82d04:	b9401403 	ldr	w3, [x0, #20]
   82d08:	b9400c25 	ldr	w5, [x1, #12]
   82d0c:	0b030083 	add	w3, w4, w3
   82d10:	6b05007f 	cmp	w3, w5
   82d14:	54000069 	b.ls	82d20 <_ZN14graphic_object14set_boundariesEP9rectangle+0x40>  // b.plast
   82d18:	4b0400a5 	sub	w5, w5, w4
   82d1c:	b9001405 	str	w5, [x0, #20]
   82d20:	0e040c40 	dup	v0.2s, w2
   82d24:	fd400021 	ldr	d1, [x1]
   82d28:	f9000c01 	str	x1, [x0, #24]
   82d2c:	4e0c1c80 	mov	v0.s[1], w4
   82d30:	0ea08420 	add	v0.2s, v1.2s, v0.2s
   82d34:	fd000400 	str	d0, [x0, #8]
   82d38:	d65f03c0 	ret
   82d3c:	d503201f 	nop

0000000000082d40 <_ZN14graphic_object14set_own_screenEP6screen>:
   82d40:	f9001001 	str	x1, [x0, #32]
   82d44:	d65f03c0 	ret
   82d48:	d503201f 	nop
   82d4c:	d503201f 	nop

0000000000082d50 <_ZN14graphic_object13get_footprintEv>:
   82d50:	aa0003e2 	mov	x2, x0
   82d54:	91002001 	add	x1, x0, #0x8
   82d58:	aa0803e0 	mov	x0, x8
   82d5c:	b9400842 	ldr	w2, [x2, #8]
   82d60:	b9000102 	str	w2, [x8]
   82d64:	b9400422 	ldr	w2, [x1, #4]
   82d68:	b9000502 	str	w2, [x8, #4]
   82d6c:	b9400822 	ldr	w2, [x1, #8]
   82d70:	b9000902 	str	w2, [x8, #8]
   82d74:	b9400c21 	ldr	w1, [x1, #12]
   82d78:	b9000d01 	str	w1, [x8, #12]
   82d7c:	d65f03c0 	ret

0000000000082d80 <_ZN14graphic_object13set_footprintE9rectangle>:
   82d80:	91002002 	add	x2, x0, #0x8
   82d84:	29401023 	ldp	w3, w4, [x1]
   82d88:	b9000803 	str	w3, [x0, #8]
   82d8c:	29410023 	ldp	w3, w0, [x1, #8]
   82d90:	29008c44 	stp	w4, w3, [x2, #4]
   82d94:	b9000c40 	str	w0, [x2, #12]
   82d98:	d65f03c0 	ret
   82d9c:	d503201f 	nop

0000000000082da0 <_ZN14graphic_object9get_colorEv>:
   82da0:	aa0003e2 	mov	x2, x0
   82da4:	9100a001 	add	x1, x0, #0x28
   82da8:	aa0803e0 	mov	x0, x8
   82dac:	3940a042 	ldrb	w2, [x2, #40]
   82db0:	39000102 	strb	w2, [x8]
   82db4:	39400422 	ldrb	w2, [x1, #1]
   82db8:	39000502 	strb	w2, [x8, #1]
   82dbc:	39400822 	ldrb	w2, [x1, #2]
   82dc0:	39000902 	strb	w2, [x8, #2]
   82dc4:	39400c21 	ldrb	w1, [x1, #3]
   82dc8:	39000d01 	strb	w1, [x8, #3]
   82dcc:	d65f03c0 	ret

0000000000082dd0 <_ZN14graphic_objectD1Ev>:
   82dd0:	a9be7bfd 	stp	x29, x30, [sp, #-32]!
   82dd4:	f0000041 	adrp	x1, 8d000 <_ZN4font9monospaceE+0x5760>
   82dd8:	91330021 	add	x1, x1, #0xcc0
   82ddc:	910003fd 	mov	x29, sp
   82de0:	f9000bf3 	str	x19, [sp, #16]
   82de4:	aa0003f3 	mov	x19, x0
   82de8:	f8028401 	str	x1, [x0], #40
   82dec:	97ffff61 	bl	82b70 <_ZN5colorD1Ev>
   82df0:	91002260 	add	x0, x19, #0x8
   82df4:	f9400bf3 	ldr	x19, [sp, #16]
   82df8:	a8c27bfd 	ldp	x29, x30, [sp], #32
   82dfc:	17fff899 	b	81060 <_ZN9rectangleD1Ev>

0000000000082e00 <_ZN14graphic_objectD0Ev>:
   82e00:	a9be7bfd 	stp	x29, x30, [sp, #-32]!
   82e04:	f0000041 	adrp	x1, 8d000 <_ZN4font9monospaceE+0x5760>
   82e08:	91330021 	add	x1, x1, #0xcc0
   82e0c:	910003fd 	mov	x29, sp
   82e10:	f9000bf3 	str	x19, [sp, #16]
   82e14:	aa0003f3 	mov	x19, x0
   82e18:	f8028401 	str	x1, [x0], #40
   82e1c:	97ffff55 	bl	82b70 <_ZN5colorD1Ev>
   82e20:	91002260 	add	x0, x19, #0x8
   82e24:	97fff88f 	bl	81060 <_ZN9rectangleD1Ev>
   82e28:	aa1303e0 	mov	x0, x19
   82e2c:	f9400bf3 	ldr	x19, [sp, #16]
   82e30:	a8c27bfd 	ldp	x29, x30, [sp], #32
   82e34:	d2800601 	mov	x1, #0x30                  	// #48
   82e38:	17fffa86 	b	81850 <_ZdlPvm>
   82e3c:	d503201f 	nop

0000000000082e40 <_ZN14graphic_object4drawEv>:
   82e40:	b9400803 	ldr	w3, [x0, #8]
   82e44:	b9401002 	ldr	w2, [x0, #16]
   82e48:	0b020061 	add	w1, w3, w2
   82e4c:	6b01007f 	cmp	w3, w1
   82e50:	54000a42 	b.cs	82f98 <_ZN14graphic_object4drawEv+0x158>  // b.hs, b.nlast
   82e54:	a9bb7bfd 	stp	x29, x30, [sp, #-80]!
   82e58:	910003fd 	mov	x29, sp
   82e5c:	a90153f3 	stp	x19, x20, [sp, #16]
   82e60:	2a0303f3 	mov	w19, w3
   82e64:	a9025bf5 	stp	x21, x22, [sp, #32]
   82e68:	52801ff4 	mov	w20, #0xff                  	// #255
   82e6c:	b9400c15 	ldr	w21, [x0, #12]
   82e70:	aa0003f6 	mov	x22, x0
   82e74:	b9401400 	ldr	w0, [x0, #20]
   82e78:	f9001bf7 	str	x23, [sp, #48]
   82e7c:	d503201f 	nop
   82e80:	0b0002a2 	add	w2, w21, w0
   82e84:	6b15005f 	cmp	w2, w21
   82e88:	54000789 	b.ls	82f78 <_ZN14graphic_object4drawEv+0x138>  // b.plast
   82e8c:	9100a2d7 	add	x23, x22, #0x28
   82e90:	f94012c2 	ldr	x2, [x22, #32]
   82e94:	b94002e0 	ldr	w0, [x23]
   82e98:	b90043a0 	str	w0, [x29, #64]
   82e9c:	910123a0 	add	x0, x29, #0x48
   82ea0:	b9400841 	ldr	w1, [x2, #8]
   82ea4:	f9400846 	ldr	x6, [x2, #16]
   82ea8:	39410ba4 	ldrb	w4, [x29, #66]
   82eac:	39410fa2 	ldrb	w2, [x29, #67]
   82eb0:	d503201f 	nop
   82eb4:	1b014ea1 	madd	w1, w21, w1, w19
   82eb8:	394107a5 	ldrb	w5, [x29, #65]
   82ebc:	394103a3 	ldrb	w3, [x29, #64]
   82ec0:	4b020288 	sub	w8, w20, w2
   82ec4:	110006b5 	add	w21, w21, #0x1
   82ec8:	d37ef421 	lsl	x1, x1, #2
   82ecc:	1b027c87 	mul	w7, w4, w2
   82ed0:	1b027ca9 	mul	w9, w5, w2
   82ed4:	1b027c64 	mul	w4, w3, w2
   82ed8:	8b0100c2 	add	x2, x6, x1
   82edc:	386168c3 	ldrb	w3, [x6, x1]
   82ee0:	390123a3 	strb	w3, [x29, #72]
   82ee4:	12001c63 	and	w3, w3, #0xff
   82ee8:	39400445 	ldrb	w5, [x2, #1]
   82eec:	390127a5 	strb	w5, [x29, #73]
   82ef0:	1b081063 	madd	w3, w3, w8, w4
   82ef4:	12001ca5 	and	w5, w5, #0xff
   82ef8:	3940084a 	ldrb	w10, [x2, #2]
   82efc:	39012baa 	strb	w10, [x29, #74]
   82f00:	12001d44 	and	w4, w10, #0xff
   82f04:	1b0824a5 	madd	w5, w5, w8, w9
   82f08:	39400c4a 	ldrb	w10, [x2, #3]
   82f0c:	53087c63 	lsr	w3, w3, #8
   82f10:	390123a3 	strb	w3, [x29, #72]
   82f14:	1b081c84 	madd	w4, w4, w8, w7
   82f18:	39012faa 	strb	w10, [x29, #75]
   82f1c:	53087ca5 	lsr	w5, w5, #8
   82f20:	390127a5 	strb	w5, [x29, #73]
   82f24:	53087c84 	lsr	w4, w4, #8
   82f28:	39012ba4 	strb	w4, [x29, #74]
   82f2c:	382168c3 	strb	w3, [x6, x1]
   82f30:	394127a1 	ldrb	w1, [x29, #73]
   82f34:	39000441 	strb	w1, [x2, #1]
   82f38:	39412ba1 	ldrb	w1, [x29, #74]
   82f3c:	39000841 	strb	w1, [x2, #2]
   82f40:	39412fa1 	ldrb	w1, [x29, #75]
   82f44:	39000c41 	strb	w1, [x2, #3]
   82f48:	97ffff0a 	bl	82b70 <_ZN5colorD1Ev>
   82f4c:	910103a0 	add	x0, x29, #0x40
   82f50:	97ffff08 	bl	82b70 <_ZN5colorD1Ev>
   82f54:	b9400ec1 	ldr	w1, [x22, #12]
   82f58:	b94016c0 	ldr	w0, [x22, #20]
   82f5c:	0b000022 	add	w2, w1, w0
   82f60:	6b15005f 	cmp	w2, w21
   82f64:	54fff968 	b.hi	82e90 <_ZN14graphic_object4drawEv+0x50>  // b.pmore
   82f68:	b9400ac3 	ldr	w3, [x22, #8]
   82f6c:	2a0103f5 	mov	w21, w1
   82f70:	b94012c2 	ldr	w2, [x22, #16]
   82f74:	0b020061 	add	w1, w3, w2
   82f78:	11000673 	add	w19, w19, #0x1
   82f7c:	6b13003f 	cmp	w1, w19
   82f80:	54fff808 	b.hi	82e80 <_ZN14graphic_object4drawEv+0x40>  // b.pmore
   82f84:	a94153f3 	ldp	x19, x20, [sp, #16]
   82f88:	a9425bf5 	ldp	x21, x22, [sp, #32]
   82f8c:	f9401bf7 	ldr	x23, [sp, #48]
   82f90:	a8c57bfd 	ldp	x29, x30, [sp], #80
   82f94:	d65f03c0 	ret
   82f98:	d65f03c0 	ret
   82f9c:	d503201f 	nop

0000000000082fa0 <_ZN14graphic_object11is_selectedE6vectorILj2EjE>:
   82fa0:	b9400802 	ldr	w2, [x0, #8]
   82fa4:	b9400023 	ldr	w3, [x1]
   82fa8:	6b02007f 	cmp	w3, w2
   82fac:	540001c3 	b.cc	82fe4 <_ZN14graphic_object11is_selectedE6vectorILj2EjE+0x44>  // b.lo, b.ul, b.last
   82fb0:	b9401004 	ldr	w4, [x0, #16]
   82fb4:	0b040042 	add	w2, w2, w4
   82fb8:	6b02007f 	cmp	w3, w2
   82fbc:	54000142 	b.cs	82fe4 <_ZN14graphic_object11is_selectedE6vectorILj2EjE+0x44>  // b.hs, b.nlast
   82fc0:	b9400422 	ldr	w2, [x1, #4]
   82fc4:	b9400c01 	ldr	w1, [x0, #12]
   82fc8:	6b01005f 	cmp	w2, w1
   82fcc:	540000c3 	b.cc	82fe4 <_ZN14graphic_object11is_selectedE6vectorILj2EjE+0x44>  // b.lo, b.ul, b.last
   82fd0:	b9401403 	ldr	w3, [x0, #20]
   82fd4:	0b030021 	add	w1, w1, w3
   82fd8:	6b01005f 	cmp	w2, w1
   82fdc:	9a9f3000 	csel	x0, x0, xzr, cc  // cc = lo, ul, last
   82fe0:	d65f03c0 	ret
   82fe4:	d2800000 	mov	x0, #0x0                   	// #0
   82fe8:	d65f03c0 	ret
   82fec:	00000000 	.inst	0x00000000 ; undefined

0000000000082ff0 <_ZN6memory16clean_data_cacheEv>:
   82ff0:	d2800000 	mov	x0, #0x0                   	// #0
   82ff4:	d503201f 	nop
   82ff8:	d5087a40 	dc	csw, x0
   82ffc:	32020001 	orr	w1, w0, #0x40000000
   83000:	d5087a41 	dc	csw, x1
   83004:	32010001 	orr	w1, w0, #0x80000000
   83008:	d5087a41 	dc	csw, x1
   8300c:	32020401 	orr	w1, w0, #0xc0000000
   83010:	d5087a41 	dc	csw, x1
   83014:	91010000 	add	x0, x0, #0x40
   83018:	f140081f 	cmp	x0, #0x2, lsl #12
   8301c:	54fffee1 	b.ne	82ff8 <_ZN6memory16clean_data_cacheEv+0x8>  // b.any
   83020:	52800050 	mov	w16, #0x2                   	// #2
   83024:	72a20010 	movk	w16, #0x1000, lsl #16
   83028:	5280004f 	mov	w15, #0x2                   	// #2
   8302c:	72a4000f 	movk	w15, #0x2000, lsl #16
   83030:	5280004e 	mov	w14, #0x2                   	// #2
   83034:	72a6000e 	movk	w14, #0x3000, lsl #16
   83038:	5280004d 	mov	w13, #0x2                   	// #2
   8303c:	72a8000d 	movk	w13, #0x4000, lsl #16
   83040:	5280004c 	mov	w12, #0x2                   	// #2
   83044:	72aa000c 	movk	w12, #0x5000, lsl #16
   83048:	5280004b 	mov	w11, #0x2                   	// #2
   8304c:	72ac000b 	movk	w11, #0x6000, lsl #16
   83050:	5280004a 	mov	w10, #0x2                   	// #2
   83054:	72ae000a 	movk	w10, #0x7000, lsl #16
   83058:	52800049 	mov	w9, #0x2                   	// #2
   8305c:	72b00009 	movk	w9, #0x8000, lsl #16
   83060:	52800048 	mov	w8, #0x2                   	// #2
   83064:	72b20008 	movk	w8, #0x9000, lsl #16
   83068:	52800047 	mov	w7, #0x2                   	// #2
   8306c:	72b40007 	movk	w7, #0xa000, lsl #16
   83070:	52800046 	mov	w6, #0x2                   	// #2
   83074:	72b60006 	movk	w6, #0xb000, lsl #16
   83078:	52800045 	mov	w5, #0x2                   	// #2
   8307c:	72b80005 	movk	w5, #0xc000, lsl #16
   83080:	52800044 	mov	w4, #0x2                   	// #2
   83084:	72ba0004 	movk	w4, #0xd000, lsl #16
   83088:	52800043 	mov	w3, #0x2                   	// #2
   8308c:	72bc0003 	movk	w3, #0xe000, lsl #16
   83090:	52800042 	mov	w2, #0x2                   	// #2
   83094:	72be0002 	movk	w2, #0xf000, lsl #16
   83098:	52800000 	mov	w0, #0x0                   	// #0
   8309c:	d503201f 	nop
   830a0:	321f0001 	orr	w1, w0, #0x2
   830a4:	d5087a41 	dc	csw, x1
   830a8:	2a100001 	orr	w1, w0, w16
   830ac:	d5087a41 	dc	csw, x1
   830b0:	2a0f0001 	orr	w1, w0, w15
   830b4:	d5087a41 	dc	csw, x1
   830b8:	2a0e0001 	orr	w1, w0, w14
   830bc:	d5087a41 	dc	csw, x1
   830c0:	2a0d0001 	orr	w1, w0, w13
   830c4:	d5087a41 	dc	csw, x1
   830c8:	2a0c0001 	orr	w1, w0, w12
   830cc:	d5087a41 	dc	csw, x1
   830d0:	2a0b0001 	orr	w1, w0, w11
   830d4:	d5087a41 	dc	csw, x1
   830d8:	2a0a0001 	orr	w1, w0, w10
   830dc:	d5087a41 	dc	csw, x1
   830e0:	2a090001 	orr	w1, w0, w9
   830e4:	d5087a41 	dc	csw, x1
   830e8:	2a080001 	orr	w1, w0, w8
   830ec:	d5087a41 	dc	csw, x1
   830f0:	2a070001 	orr	w1, w0, w7
   830f4:	d5087a41 	dc	csw, x1
   830f8:	2a060001 	orr	w1, w0, w6
   830fc:	d5087a41 	dc	csw, x1
   83100:	2a050001 	orr	w1, w0, w5
   83104:	d5087a41 	dc	csw, x1
   83108:	2a040001 	orr	w1, w0, w4
   8310c:	d5087a41 	dc	csw, x1
   83110:	2a030001 	orr	w1, w0, w3
   83114:	d5087a41 	dc	csw, x1
   83118:	2a020001 	orr	w1, w0, w2
   8311c:	d5087a41 	dc	csw, x1
   83120:	11010000 	add	w0, w0, #0x40
   83124:	7140201f 	cmp	w0, #0x8, lsl #12
   83128:	54fffbc1 	b.ne	830a0 <_ZN6memory16clean_data_cacheEv+0xb0>  // b.any
   8312c:	d65f03c0 	ret

0000000000083130 <_ZN6memory19clean_l1_data_cacheEv>:
   83130:	d2800000 	mov	x0, #0x0                   	// #0
   83134:	d503201f 	nop
   83138:	d5087a40 	dc	csw, x0
   8313c:	32020001 	orr	w1, w0, #0x40000000
   83140:	d5087a41 	dc	csw, x1
   83144:	32010001 	orr	w1, w0, #0x80000000
   83148:	d5087a41 	dc	csw, x1
   8314c:	32020401 	orr	w1, w0, #0xc0000000
   83150:	d5087a41 	dc	csw, x1
   83154:	91010000 	add	x0, x0, #0x40
   83158:	f140081f 	cmp	x0, #0x2, lsl #12
   8315c:	54fffee1 	b.ne	83138 <_ZN6memory19clean_l1_data_cacheEv+0x8>  // b.any
   83160:	d65f03c0 	ret
   83164:	d503201f 	nop
   83168:	d503201f 	nop
   8316c:	d503201f 	nop

0000000000083170 <_ZN6memory22clean_l2_unified_cacheEv>:
   83170:	52800050 	mov	w16, #0x2                   	// #2
   83174:	72a20010 	movk	w16, #0x1000, lsl #16
   83178:	5280004f 	mov	w15, #0x2                   	// #2
   8317c:	72a4000f 	movk	w15, #0x2000, lsl #16
   83180:	5280004e 	mov	w14, #0x2                   	// #2
   83184:	72a6000e 	movk	w14, #0x3000, lsl #16
   83188:	5280004d 	mov	w13, #0x2                   	// #2
   8318c:	72a8000d 	movk	w13, #0x4000, lsl #16
   83190:	5280004c 	mov	w12, #0x2                   	// #2
   83194:	72aa000c 	movk	w12, #0x5000, lsl #16
   83198:	5280004b 	mov	w11, #0x2                   	// #2
   8319c:	72ac000b 	movk	w11, #0x6000, lsl #16
   831a0:	5280004a 	mov	w10, #0x2                   	// #2
   831a4:	72ae000a 	movk	w10, #0x7000, lsl #16
   831a8:	52800049 	mov	w9, #0x2                   	// #2
   831ac:	72b00009 	movk	w9, #0x8000, lsl #16
   831b0:	52800048 	mov	w8, #0x2                   	// #2
   831b4:	72b20008 	movk	w8, #0x9000, lsl #16
   831b8:	52800047 	mov	w7, #0x2                   	// #2
   831bc:	72b40007 	movk	w7, #0xa000, lsl #16
   831c0:	52800046 	mov	w6, #0x2                   	// #2
   831c4:	72b60006 	movk	w6, #0xb000, lsl #16
   831c8:	52800045 	mov	w5, #0x2                   	// #2
   831cc:	72b80005 	movk	w5, #0xc000, lsl #16
   831d0:	52800044 	mov	w4, #0x2                   	// #2
   831d4:	72ba0004 	movk	w4, #0xd000, lsl #16
   831d8:	52800043 	mov	w3, #0x2                   	// #2
   831dc:	72bc0003 	movk	w3, #0xe000, lsl #16
   831e0:	52800042 	mov	w2, #0x2                   	// #2
   831e4:	72be0002 	movk	w2, #0xf000, lsl #16
   831e8:	52800000 	mov	w0, #0x0                   	// #0
   831ec:	d503201f 	nop
   831f0:	321f0001 	orr	w1, w0, #0x2
   831f4:	d5087a41 	dc	csw, x1
   831f8:	2a100001 	orr	w1, w0, w16
   831fc:	d5087a41 	dc	csw, x1
   83200:	2a0f0001 	orr	w1, w0, w15
   83204:	d5087a41 	dc	csw, x1
   83208:	2a0e0001 	orr	w1, w0, w14
   8320c:	d5087a41 	dc	csw, x1
   83210:	2a0d0001 	orr	w1, w0, w13
   83214:	d5087a41 	dc	csw, x1
   83218:	2a0c0001 	orr	w1, w0, w12
   8321c:	d5087a41 	dc	csw, x1
   83220:	2a0b0001 	orr	w1, w0, w11
   83224:	d5087a41 	dc	csw, x1
   83228:	2a0a0001 	orr	w1, w0, w10
   8322c:	d5087a41 	dc	csw, x1
   83230:	2a090001 	orr	w1, w0, w9
   83234:	d5087a41 	dc	csw, x1
   83238:	2a080001 	orr	w1, w0, w8
   8323c:	d5087a41 	dc	csw, x1
   83240:	2a070001 	orr	w1, w0, w7
   83244:	d5087a41 	dc	csw, x1
   83248:	2a060001 	orr	w1, w0, w6
   8324c:	d5087a41 	dc	csw, x1
   83250:	2a050001 	orr	w1, w0, w5
   83254:	d5087a41 	dc	csw, x1
   83258:	2a040001 	orr	w1, w0, w4
   8325c:	d5087a41 	dc	csw, x1
   83260:	2a030001 	orr	w1, w0, w3
   83264:	d5087a41 	dc	csw, x1
   83268:	2a020001 	orr	w1, w0, w2
   8326c:	d5087a41 	dc	csw, x1
   83270:	11010000 	add	w0, w0, #0x40
   83274:	7140201f 	cmp	w0, #0x8, lsl #12
   83278:	54fffbc1 	b.ne	831f0 <_ZN6memory22clean_l2_unified_cacheEv+0x80>  // b.any
   8327c:	d65f03c0 	ret

0000000000083280 <_ZN6memory21invalidate_data_cacheEv>:
   83280:	d2800000 	mov	x0, #0x0                   	// #0
   83284:	d503201f 	nop
   83288:	d5087640 	dc	isw, x0
   8328c:	32020001 	orr	w1, w0, #0x40000000
   83290:	d5087641 	dc	isw, x1
   83294:	32010001 	orr	w1, w0, #0x80000000
   83298:	d5087641 	dc	isw, x1
   8329c:	32020401 	orr	w1, w0, #0xc0000000
   832a0:	d5087641 	dc	isw, x1
   832a4:	91010000 	add	x0, x0, #0x40
   832a8:	f140081f 	cmp	x0, #0x2, lsl #12
   832ac:	54fffee1 	b.ne	83288 <_ZN6memory21invalidate_data_cacheEv+0x8>  // b.any
   832b0:	52800050 	mov	w16, #0x2                   	// #2
   832b4:	72a20010 	movk	w16, #0x1000, lsl #16
   832b8:	5280004f 	mov	w15, #0x2                   	// #2
   832bc:	72a4000f 	movk	w15, #0x2000, lsl #16
   832c0:	5280004e 	mov	w14, #0x2                   	// #2
   832c4:	72a6000e 	movk	w14, #0x3000, lsl #16
   832c8:	5280004d 	mov	w13, #0x2                   	// #2
   832cc:	72a8000d 	movk	w13, #0x4000, lsl #16
   832d0:	5280004c 	mov	w12, #0x2                   	// #2
   832d4:	72aa000c 	movk	w12, #0x5000, lsl #16
   832d8:	5280004b 	mov	w11, #0x2                   	// #2
   832dc:	72ac000b 	movk	w11, #0x6000, lsl #16
   832e0:	5280004a 	mov	w10, #0x2                   	// #2
   832e4:	72ae000a 	movk	w10, #0x7000, lsl #16
   832e8:	52800049 	mov	w9, #0x2                   	// #2
   832ec:	72b00009 	movk	w9, #0x8000, lsl #16
   832f0:	52800048 	mov	w8, #0x2                   	// #2
   832f4:	72b20008 	movk	w8, #0x9000, lsl #16
   832f8:	52800047 	mov	w7, #0x2                   	// #2
   832fc:	72b40007 	movk	w7, #0xa000, lsl #16
   83300:	52800046 	mov	w6, #0x2                   	// #2
   83304:	72b60006 	movk	w6, #0xb000, lsl #16
   83308:	52800045 	mov	w5, #0x2                   	// #2
   8330c:	72b80005 	movk	w5, #0xc000, lsl #16
   83310:	52800044 	mov	w4, #0x2                   	// #2
   83314:	72ba0004 	movk	w4, #0xd000, lsl #16
   83318:	52800043 	mov	w3, #0x2                   	// #2
   8331c:	72bc0003 	movk	w3, #0xe000, lsl #16
   83320:	52800042 	mov	w2, #0x2                   	// #2
   83324:	72be0002 	movk	w2, #0xf000, lsl #16
   83328:	52800000 	mov	w0, #0x0                   	// #0
   8332c:	d503201f 	nop
   83330:	321f0001 	orr	w1, w0, #0x2
   83334:	d5087641 	dc	isw, x1
   83338:	2a100001 	orr	w1, w0, w16
   8333c:	d5087641 	dc	isw, x1
   83340:	2a0f0001 	orr	w1, w0, w15
   83344:	d5087641 	dc	isw, x1
   83348:	2a0e0001 	orr	w1, w0, w14
   8334c:	d5087641 	dc	isw, x1
   83350:	2a0d0001 	orr	w1, w0, w13
   83354:	d5087641 	dc	isw, x1
   83358:	2a0c0001 	orr	w1, w0, w12
   8335c:	d5087641 	dc	isw, x1
   83360:	2a0b0001 	orr	w1, w0, w11
   83364:	d5087641 	dc	isw, x1
   83368:	2a0a0001 	orr	w1, w0, w10
   8336c:	d5087641 	dc	isw, x1
   83370:	2a090001 	orr	w1, w0, w9
   83374:	d5087641 	dc	isw, x1
   83378:	2a080001 	orr	w1, w0, w8
   8337c:	d5087641 	dc	isw, x1
   83380:	2a070001 	orr	w1, w0, w7
   83384:	d5087641 	dc	isw, x1
   83388:	2a060001 	orr	w1, w0, w6
   8338c:	d5087641 	dc	isw, x1
   83390:	2a050001 	orr	w1, w0, w5
   83394:	d5087641 	dc	isw, x1
   83398:	2a040001 	orr	w1, w0, w4
   8339c:	d5087641 	dc	isw, x1
   833a0:	2a030001 	orr	w1, w0, w3
   833a4:	d5087641 	dc	isw, x1
   833a8:	2a020001 	orr	w1, w0, w2
   833ac:	d5087641 	dc	isw, x1
   833b0:	11010000 	add	w0, w0, #0x40
   833b4:	7140201f 	cmp	w0, #0x8, lsl #12
   833b8:	54fffbc1 	b.ne	83330 <_ZN6memory21invalidate_data_cacheEv+0xb0>  // b.any
   833bc:	d65f03c0 	ret

00000000000833c0 <_ZN6memory24invalidate_l1_data_cacheEv>:
   833c0:	d2800000 	mov	x0, #0x0                   	// #0
   833c4:	d503201f 	nop
   833c8:	d5087640 	dc	isw, x0
   833cc:	32020001 	orr	w1, w0, #0x40000000
   833d0:	d5087641 	dc	isw, x1
   833d4:	32010001 	orr	w1, w0, #0x80000000
   833d8:	d5087641 	dc	isw, x1
   833dc:	32020401 	orr	w1, w0, #0xc0000000
   833e0:	d5087641 	dc	isw, x1
   833e4:	91010000 	add	x0, x0, #0x40
   833e8:	f140081f 	cmp	x0, #0x2, lsl #12
   833ec:	54fffee1 	b.ne	833c8 <_ZN6memory24invalidate_l1_data_cacheEv+0x8>  // b.any
   833f0:	d65f03c0 	ret
   833f4:	d503201f 	nop
   833f8:	d503201f 	nop
   833fc:	d503201f 	nop

0000000000083400 <_ZN6memory27invalidate_l2_unified_cacheEv>:
   83400:	52800050 	mov	w16, #0x2                   	// #2
   83404:	72a20010 	movk	w16, #0x1000, lsl #16
   83408:	5280004f 	mov	w15, #0x2                   	// #2
   8340c:	72a4000f 	movk	w15, #0x2000, lsl #16
   83410:	5280004e 	mov	w14, #0x2                   	// #2
   83414:	72a6000e 	movk	w14, #0x3000, lsl #16
   83418:	5280004d 	mov	w13, #0x2                   	// #2
   8341c:	72a8000d 	movk	w13, #0x4000, lsl #16
   83420:	5280004c 	mov	w12, #0x2                   	// #2
   83424:	72aa000c 	movk	w12, #0x5000, lsl #16
   83428:	5280004b 	mov	w11, #0x2                   	// #2
   8342c:	72ac000b 	movk	w11, #0x6000, lsl #16
   83430:	5280004a 	mov	w10, #0x2                   	// #2
   83434:	72ae000a 	movk	w10, #0x7000, lsl #16
   83438:	52800049 	mov	w9, #0x2                   	// #2
   8343c:	72b00009 	movk	w9, #0x8000, lsl #16
   83440:	52800048 	mov	w8, #0x2                   	// #2
   83444:	72b20008 	movk	w8, #0x9000, lsl #16
   83448:	52800047 	mov	w7, #0x2                   	// #2
   8344c:	72b40007 	movk	w7, #0xa000, lsl #16
   83450:	52800046 	mov	w6, #0x2                   	// #2
   83454:	72b60006 	movk	w6, #0xb000, lsl #16
   83458:	52800045 	mov	w5, #0x2                   	// #2
   8345c:	72b80005 	movk	w5, #0xc000, lsl #16
   83460:	52800044 	mov	w4, #0x2                   	// #2
   83464:	72ba0004 	movk	w4, #0xd000, lsl #16
   83468:	52800043 	mov	w3, #0x2                   	// #2
   8346c:	72bc0003 	movk	w3, #0xe000, lsl #16
   83470:	52800042 	mov	w2, #0x2                   	// #2
   83474:	72be0002 	movk	w2, #0xf000, lsl #16
   83478:	52800000 	mov	w0, #0x0                   	// #0
   8347c:	d503201f 	nop
   83480:	321f0001 	orr	w1, w0, #0x2
   83484:	d5087641 	dc	isw, x1
   83488:	2a100001 	orr	w1, w0, w16
   8348c:	d5087641 	dc	isw, x1
   83490:	2a0f0001 	orr	w1, w0, w15
   83494:	d5087641 	dc	isw, x1
   83498:	2a0e0001 	orr	w1, w0, w14
   8349c:	d5087641 	dc	isw, x1
   834a0:	2a0d0001 	orr	w1, w0, w13
   834a4:	d5087641 	dc	isw, x1
   834a8:	2a0c0001 	orr	w1, w0, w12
   834ac:	d5087641 	dc	isw, x1
   834b0:	2a0b0001 	orr	w1, w0, w11
   834b4:	d5087641 	dc	isw, x1
   834b8:	2a0a0001 	orr	w1, w0, w10
   834bc:	d5087641 	dc	isw, x1
   834c0:	2a090001 	orr	w1, w0, w9
   834c4:	d5087641 	dc	isw, x1
   834c8:	2a080001 	orr	w1, w0, w8
   834cc:	d5087641 	dc	isw, x1
   834d0:	2a070001 	orr	w1, w0, w7
   834d4:	d5087641 	dc	isw, x1
   834d8:	2a060001 	orr	w1, w0, w6
   834dc:	d5087641 	dc	isw, x1
   834e0:	2a050001 	orr	w1, w0, w5
   834e4:	d5087641 	dc	isw, x1
   834e8:	2a040001 	orr	w1, w0, w4
   834ec:	d5087641 	dc	isw, x1
   834f0:	2a030001 	orr	w1, w0, w3
   834f4:	d5087641 	dc	isw, x1
   834f8:	2a020001 	orr	w1, w0, w2
   834fc:	d5087641 	dc	isw, x1
   83500:	11010000 	add	w0, w0, #0x40
   83504:	7140201f 	cmp	w0, #0x8, lsl #12
   83508:	54fffbc1 	b.ne	83480 <_ZN6memory27invalidate_l2_unified_cacheEv+0x80>  // b.any
   8350c:	d65f03c0 	ret

0000000000083510 <_ZN6memory17data_sync_barrierEv>:
   83510:	d5033f9f 	dsb	sy
   83514:	d65f03c0 	ret
   83518:	d503201f 	nop
   8351c:	d503201f 	nop

0000000000083520 <_ZN6memory19data_memory_barrierEv>:
   83520:	d5033fbf 	dmb	sy
   83524:	d65f03c0 	ret
   83528:	d503201f 	nop
   8352c:	d503201f 	nop

0000000000083530 <_ZN6memory10enable_mmuEv>:
   83530:	a9bf7bfd 	stp	x29, x30, [sp, #-16]!
   83534:	910003fd 	mov	x29, sp
   83538:	94000122 	bl	839c0 <_ZN6memory20create_level_2_tableEv>
   8353c:	f0000042 	adrp	x2, 8e000 <_ZN10buddy_heap14block_pointersE+0x48>
   83540:	d2809981 	mov	x1, #0x4cc                 	// #1228
   83544:	f905e040 	str	x0, [x2, #3008]
   83548:	d518a201 	msr	mair_el1, x1
   8354c:	d5182000 	msr	ttbr0_el1, x0
   83550:	d5382040 	mrs	x0, tcr_el1
   83554:	929ff7e1 	mov	x1, #0xffffffffffff0040    	// #-65472
   83558:	f2bff7e1 	movk	x1, #0xffbf, lsl #16
   8355c:	f2dfff01 	movk	x1, #0xfff8, lsl #32
   83560:	8a010000 	and	x0, x0, x1
   83564:	d28fe401 	mov	x1, #0x7f20                	// #32544
   83568:	f2a01001 	movk	x1, #0x80, lsl #16
   8356c:	aa010000 	orr	x0, x0, x1
   83570:	d5182040 	msr	tcr_el1, x0
   83574:	d5381000 	mrs	x0, sctlr_el1
   83578:	529fffa1 	mov	w1, #0xfffd                	// #65533
   8357c:	72bffee1 	movk	w1, #0xfff7, lsl #16
   83580:	0a010000 	and	w0, w0, w1
   83584:	528200a1 	mov	w1, #0x1005                	// #4101
   83588:	2a010000 	orr	w0, w0, w1
   8358c:	d5181000 	msr	sctlr_el1, x0
   83590:	a8c17bfd 	ldp	x29, x30, [sp], #16
   83594:	d65f03c0 	ret
   83598:	d503201f 	nop
   8359c:	d503201f 	nop

00000000000835a0 <_Z6memsetPvjm>:
   835a0:	d1000445 	sub	x5, x2, #0x1
   835a4:	b4000d42 	cbz	x2, 8374c <_Z6memsetPvjm+0x1ac>
   835a8:	cb0003e4 	neg	x4, x0
   835ac:	d2800226 	mov	x6, #0x11                  	// #17
   835b0:	92400c84 	and	x4, x4, #0xf
   835b4:	12001c21 	and	w1, w1, #0xff
   835b8:	91003c83 	add	x3, x4, #0xf
   835bc:	eb06007f 	cmp	x3, x6
   835c0:	9a862063 	csel	x3, x3, x6, cs  // cs = hs, nlast
   835c4:	eb0300bf 	cmp	x5, x3
   835c8:	54000c43 	b.cc	83750 <_Z6memsetPvjm+0x1b0>  // b.lo, b.ul, b.last
   835cc:	b4000c64 	cbz	x4, 83758 <_Z6memsetPvjm+0x1b8>
   835d0:	39000001 	strb	w1, [x0]
   835d4:	91000403 	add	x3, x0, #0x1
   835d8:	d1000845 	sub	x5, x2, #0x2
   835dc:	f100049f 	cmp	x4, #0x1
   835e0:	540008c0 	b.eq	836f8 <_Z6memsetPvjm+0x158>  // b.none
   835e4:	39000401 	strb	w1, [x0, #1]
   835e8:	91000803 	add	x3, x0, #0x2
   835ec:	d1000c45 	sub	x5, x2, #0x3
   835f0:	f100089f 	cmp	x4, #0x2
   835f4:	54000820 	b.eq	836f8 <_Z6memsetPvjm+0x158>  // b.none
   835f8:	39000801 	strb	w1, [x0, #2]
   835fc:	91000c03 	add	x3, x0, #0x3
   83600:	d1001045 	sub	x5, x2, #0x4
   83604:	f1000c9f 	cmp	x4, #0x3
   83608:	54000780 	b.eq	836f8 <_Z6memsetPvjm+0x158>  // b.none
   8360c:	39000c01 	strb	w1, [x0, #3]
   83610:	91001003 	add	x3, x0, #0x4
   83614:	d1001445 	sub	x5, x2, #0x5
   83618:	f100109f 	cmp	x4, #0x4
   8361c:	540006e0 	b.eq	836f8 <_Z6memsetPvjm+0x158>  // b.none
   83620:	39001001 	strb	w1, [x0, #4]
   83624:	91001403 	add	x3, x0, #0x5
   83628:	d1001845 	sub	x5, x2, #0x6
   8362c:	f100149f 	cmp	x4, #0x5
   83630:	54000640 	b.eq	836f8 <_Z6memsetPvjm+0x158>  // b.none
   83634:	39001401 	strb	w1, [x0, #5]
   83638:	91001803 	add	x3, x0, #0x6
   8363c:	d1001c45 	sub	x5, x2, #0x7
   83640:	f100189f 	cmp	x4, #0x6
   83644:	540005a0 	b.eq	836f8 <_Z6memsetPvjm+0x158>  // b.none
   83648:	39001801 	strb	w1, [x0, #6]
   8364c:	91001c03 	add	x3, x0, #0x7
   83650:	d1002045 	sub	x5, x2, #0x8
   83654:	f1001c9f 	cmp	x4, #0x7
   83658:	54000500 	b.eq	836f8 <_Z6memsetPvjm+0x158>  // b.none
   8365c:	39001c01 	strb	w1, [x0, #7]
   83660:	91002003 	add	x3, x0, #0x8
   83664:	d1002445 	sub	x5, x2, #0x9
   83668:	f100209f 	cmp	x4, #0x8
   8366c:	54000460 	b.eq	836f8 <_Z6memsetPvjm+0x158>  // b.none
   83670:	39002001 	strb	w1, [x0, #8]
   83674:	91002403 	add	x3, x0, #0x9
   83678:	d1002845 	sub	x5, x2, #0xa
   8367c:	f100249f 	cmp	x4, #0x9
   83680:	540003c0 	b.eq	836f8 <_Z6memsetPvjm+0x158>  // b.none
   83684:	39002401 	strb	w1, [x0, #9]
   83688:	91002803 	add	x3, x0, #0xa
   8368c:	d1002c45 	sub	x5, x2, #0xb
   83690:	f100289f 	cmp	x4, #0xa
   83694:	54000320 	b.eq	836f8 <_Z6memsetPvjm+0x158>  // b.none
   83698:	39002801 	strb	w1, [x0, #10]
   8369c:	91002c03 	add	x3, x0, #0xb
   836a0:	d1003045 	sub	x5, x2, #0xc
   836a4:	f1002c9f 	cmp	x4, #0xb
   836a8:	54000280 	b.eq	836f8 <_Z6memsetPvjm+0x158>  // b.none
   836ac:	39002c01 	strb	w1, [x0, #11]
   836b0:	91003003 	add	x3, x0, #0xc
   836b4:	d1003445 	sub	x5, x2, #0xd
   836b8:	f100309f 	cmp	x4, #0xc
   836bc:	540001e0 	b.eq	836f8 <_Z6memsetPvjm+0x158>  // b.none
   836c0:	39003001 	strb	w1, [x0, #12]
   836c4:	91003403 	add	x3, x0, #0xd
   836c8:	d1003845 	sub	x5, x2, #0xe
   836cc:	f100349f 	cmp	x4, #0xd
   836d0:	54000140 	b.eq	836f8 <_Z6memsetPvjm+0x158>  // b.none
   836d4:	39003401 	strb	w1, [x0, #13]
   836d8:	91003803 	add	x3, x0, #0xe
   836dc:	d1003c45 	sub	x5, x2, #0xf
   836e0:	f1003c9f 	cmp	x4, #0xf
   836e4:	540000a1 	b.ne	836f8 <_Z6memsetPvjm+0x158>  // b.any
   836e8:	91003c03 	add	x3, x0, #0xf
   836ec:	d1004045 	sub	x5, x2, #0x10
   836f0:	39003801 	strb	w1, [x0, #14]
   836f4:	d503201f 	nop
   836f8:	cb040046 	sub	x6, x2, x4
   836fc:	4e010c20 	dup	v0.16b, w1
   83700:	d344fcc7 	lsr	x7, x6, #4
   83704:	8b040002 	add	x2, x0, x4
   83708:	d2800004 	mov	x4, #0x0                   	// #0
   8370c:	d503201f 	nop
   83710:	91000484 	add	x4, x4, #0x1
   83714:	3c810440 	str	q0, [x2], #16
   83718:	eb0400ff 	cmp	x7, x4
   8371c:	54ffffa8 	b.hi	83710 <_Z6memsetPvjm+0x170>  // b.pmore
   83720:	927cecc4 	and	x4, x6, #0xfffffffffffffff0
   83724:	8b040062 	add	x2, x3, x4
   83728:	cb0400a5 	sub	x5, x5, x4
   8372c:	eb0400df 	cmp	x6, x4
   83730:	540000e0 	b.eq	8374c <_Z6memsetPvjm+0x1ac>  // b.none
   83734:	910004a5 	add	x5, x5, #0x1
   83738:	8b050045 	add	x5, x2, x5
   8373c:	d503201f 	nop
   83740:	38001441 	strb	w1, [x2], #1
   83744:	eb05005f 	cmp	x2, x5
   83748:	54ffffc1 	b.ne	83740 <_Z6memsetPvjm+0x1a0>  // b.any
   8374c:	d65f03c0 	ret
   83750:	aa0003e2 	mov	x2, x0
   83754:	17fffff8 	b	83734 <_Z6memsetPvjm+0x194>
   83758:	aa0003e3 	mov	x3, x0
   8375c:	17ffffe7 	b	836f8 <_Z6memsetPvjm+0x158>

0000000000083760 <_Z6pallocv>:
   83760:	d0000041 	adrp	x1, 8d000 <_ZN4font9monospaceE+0x5760>
   83764:	f9479c20 	ldr	x0, [x1, #3896]
   83768:	91404002 	add	x2, x0, #0x10, lsl #12
   8376c:	f9079c22 	str	x2, [x1, #3896]
   83770:	d65f03c0 	ret
   83774:	d503201f 	nop
   83778:	d503201f 	nop
   8377c:	d503201f 	nop

0000000000083780 <_ZN6memory20create_level_3_tableEm>:
   83780:	a9bc7bfd 	stp	x29, x30, [sp, #-64]!
   83784:	910003fd 	mov	x29, sp
   83788:	f9000fa0 	str	x0, [x29, #24]
   8378c:	97fffff5 	bl	83760 <_Z6pallocv>
   83790:	f9001ba0 	str	x0, [x29, #48]
   83794:	b9003fbf 	str	wzr, [x29, #60]
   83798:	b9403fa1 	ldr	w1, [x29, #60]
   8379c:	5283ffe0 	mov	w0, #0x1fff                	// #8191
   837a0:	6b00003f 	cmp	w1, w0
   837a4:	54001028 	b.hi	839a8 <_ZN6memory20create_level_3_tableEm+0x228>  // b.pmore
   837a8:	b9403fa0 	ldr	w0, [x29, #60]
   837ac:	d37df000 	lsl	x0, x0, #3
   837b0:	f9401ba1 	ldr	x1, [x29, #48]
   837b4:	8b000020 	add	x0, x1, x0
   837b8:	f90017a0 	str	x0, [x29, #40]
   837bc:	f94017a0 	ldr	x0, [x29, #40]
   837c0:	39400001 	ldrb	w1, [x0]
   837c4:	32000421 	orr	w1, w1, #0x3
   837c8:	39000001 	strb	w1, [x0]
   837cc:	f94017a0 	ldr	x0, [x29, #40]
   837d0:	39400001 	ldrb	w1, [x0]
   837d4:	121b7021 	and	w1, w1, #0xffffffe3
   837d8:	39000001 	strb	w1, [x0]
   837dc:	f94017a0 	ldr	x0, [x29, #40]
   837e0:	39400001 	ldrb	w1, [x0]
   837e4:	121a7821 	and	w1, w1, #0xffffffdf
   837e8:	39000001 	strb	w1, [x0]
   837ec:	f94017a0 	ldr	x0, [x29, #40]
   837f0:	39400001 	ldrb	w1, [x0]
   837f4:	12001421 	and	w1, w1, #0x3f
   837f8:	39000001 	strb	w1, [x0]
   837fc:	f94017a0 	ldr	x0, [x29, #40]
   83800:	39400401 	ldrb	w1, [x0, #1]
   83804:	32000421 	orr	w1, w1, #0x3
   83808:	39000401 	strb	w1, [x0, #1]
   8380c:	f94017a0 	ldr	x0, [x29, #40]
   83810:	39400401 	ldrb	w1, [x0, #1]
   83814:	321e0021 	orr	w1, w1, #0x4
   83818:	39000401 	strb	w1, [x0, #1]
   8381c:	f94017a0 	ldr	x0, [x29, #40]
   83820:	39400401 	ldrb	w1, [x0, #1]
   83824:	121c7821 	and	w1, w1, #0xfffffff7
   83828:	39000401 	strb	w1, [x0, #1]
   8382c:	f94017a0 	ldr	x0, [x29, #40]
   83830:	39400401 	ldrb	w1, [x0, #1]
   83834:	12000c21 	and	w1, w1, #0xf
   83838:	39000401 	strb	w1, [x0, #1]
   8383c:	f9400fa0 	ldr	x0, [x29, #24]
   83840:	d350fc00 	lsr	x0, x0, #16
   83844:	2a0003e1 	mov	w1, w0
   83848:	f94017a0 	ldr	x0, [x29, #40]
   8384c:	2a0103e2 	mov	w2, w1
   83850:	92401c44 	and	x4, x2, #0xff
   83854:	39400802 	ldrb	w2, [x0, #2]
   83858:	52800003 	mov	w3, #0x0                   	// #0
   8385c:	0a030042 	and	w2, w2, w3
   83860:	2a0203e3 	mov	w3, w2
   83864:	2a0403e2 	mov	w2, w4
   83868:	2a020062 	orr	w2, w3, w2
   8386c:	39000802 	strb	w2, [x0, #2]
   83870:	53087c22 	lsr	w2, w1, #8
   83874:	2a0203e2 	mov	w2, w2
   83878:	92401c44 	and	x4, x2, #0xff
   8387c:	39400c02 	ldrb	w2, [x0, #3]
   83880:	52800003 	mov	w3, #0x0                   	// #0
   83884:	0a030042 	and	w2, w2, w3
   83888:	2a0203e3 	mov	w3, w2
   8388c:	2a0403e2 	mov	w2, w4
   83890:	2a020062 	orr	w2, w3, w2
   83894:	39000c02 	strb	w2, [x0, #3]
   83898:	53107c22 	lsr	w2, w1, #16
   8389c:	2a0203e2 	mov	w2, w2
   838a0:	92401c44 	and	x4, x2, #0xff
   838a4:	39401002 	ldrb	w2, [x0, #4]
   838a8:	52800003 	mov	w3, #0x0                   	// #0
   838ac:	0a030042 	and	w2, w2, w3
   838b0:	2a0203e3 	mov	w3, w2
   838b4:	2a0403e2 	mov	w2, w4
   838b8:	2a020062 	orr	w2, w3, w2
   838bc:	39001002 	strb	w2, [x0, #4]
   838c0:	53187c21 	lsr	w1, w1, #24
   838c4:	2a0103e3 	mov	w3, w1
   838c8:	39401401 	ldrb	w1, [x0, #5]
   838cc:	52800002 	mov	w2, #0x0                   	// #0
   838d0:	0a020021 	and	w1, w1, w2
   838d4:	2a0103e2 	mov	w2, w1
   838d8:	2a0303e1 	mov	w1, w3
   838dc:	2a010041 	orr	w1, w2, w1
   838e0:	39001401 	strb	w1, [x0, #5]
   838e4:	f94017a0 	ldr	x0, [x29, #40]
   838e8:	39401801 	ldrb	w1, [x0, #6]
   838ec:	121c6c21 	and	w1, w1, #0xfffffff0
   838f0:	39001801 	strb	w1, [x0, #6]
   838f4:	f94017a0 	ldr	x0, [x29, #40]
   838f8:	39401801 	ldrb	w1, [x0, #6]
   838fc:	121b7821 	and	w1, w1, #0xffffffef
   83900:	39001801 	strb	w1, [x0, #6]
   83904:	f94017a0 	ldr	x0, [x29, #40]
   83908:	39401801 	ldrb	w1, [x0, #6]
   8390c:	121a7821 	and	w1, w1, #0xffffffdf
   83910:	39001801 	strb	w1, [x0, #6]
   83914:	f94017a0 	ldr	x0, [x29, #40]
   83918:	39401801 	ldrb	w1, [x0, #6]
   8391c:	321a0021 	orr	w1, w1, #0x40
   83920:	39001801 	strb	w1, [x0, #6]
   83924:	f94017a0 	ldr	x0, [x29, #40]
   83928:	39401801 	ldrb	w1, [x0, #6]
   8392c:	12001821 	and	w1, w1, #0x7f
   83930:	39001801 	strb	w1, [x0, #6]
   83934:	39401c01 	ldrb	w1, [x0, #7]
   83938:	52800002 	mov	w2, #0x0                   	// #0
   8393c:	0a020021 	and	w1, w1, w2
   83940:	39001c01 	strb	w1, [x0, #7]
   83944:	91009fa1 	add	x1, x29, #0x27
   83948:	f9400fa0 	ldr	x0, [x29, #24]
   8394c:	eb00003f 	cmp	x1, x0
   83950:	540001e8 	b.hi	8398c <_ZN6memory20create_level_3_tableEm+0x20c>  // b.pmore
   83954:	f94017a0 	ldr	x0, [x29, #40]
   83958:	39401801 	ldrb	w1, [x0, #6]
   8395c:	321b0021 	orr	w1, w1, #0x20
   83960:	39001801 	strb	w1, [x0, #6]
   83964:	f94017a1 	ldr	x1, [x29, #40]
   83968:	39400020 	ldrb	w0, [x1]
   8396c:	52800022 	mov	w2, #0x1                   	// #1
   83970:	331e0840 	bfi	w0, w2, #2, #3
   83974:	39000020 	strb	w0, [x1]
   83978:	f94017a1 	ldr	x1, [x29, #40]
   8397c:	39400420 	ldrb	w0, [x1, #1]
   83980:	52800042 	mov	w2, #0x2                   	// #2
   83984:	33000440 	bfxil	w0, w2, #0, #2
   83988:	39000420 	strb	w0, [x1, #1]
   8398c:	f9400fa0 	ldr	x0, [x29, #24]
   83990:	91404000 	add	x0, x0, #0x10, lsl #12
   83994:	f9000fa0 	str	x0, [x29, #24]
   83998:	b9403fa0 	ldr	w0, [x29, #60]
   8399c:	11000400 	add	w0, w0, #0x1
   839a0:	b9003fa0 	str	w0, [x29, #60]
   839a4:	17ffff7d 	b	83798 <_ZN6memory20create_level_3_tableEm+0x18>
   839a8:	f9401ba0 	ldr	x0, [x29, #48]
   839ac:	a8c47bfd 	ldp	x29, x30, [sp], #64
   839b0:	d65f03c0 	ret
   839b4:	d503201f 	nop
   839b8:	d503201f 	nop
   839bc:	d503201f 	nop

00000000000839c0 <_ZN6memory20create_level_2_tableEv>:
   839c0:	a9bc7bfd 	stp	x29, x30, [sp, #-64]!
   839c4:	910003fd 	mov	x29, sp
   839c8:	97ffff66 	bl	83760 <_Z6pallocv>
   839cc:	f9001ba0 	str	x0, [x29, #48]
   839d0:	d2a00022 	mov	x2, #0x10000               	// #65536
   839d4:	52800001 	mov	w1, #0x0                   	// #0
   839d8:	f9401ba0 	ldr	x0, [x29, #48]
   839dc:	97fffef1 	bl	835a0 <_Z6memsetPvjm>
   839e0:	b9003fbf 	str	wzr, [x29, #60]
   839e4:	b9403fa0 	ldr	w0, [x29, #60]
   839e8:	7100081f 	cmp	w0, #0x2
   839ec:	54000c28 	b.hi	83b70 <_ZN6memory20create_level_2_tableEv+0x1b0>  // b.pmore
   839f0:	b9403fa0 	ldr	w0, [x29, #60]
   839f4:	d3638800 	lsl	x0, x0, #29
   839f8:	f90017a0 	str	x0, [x29, #40]
   839fc:	f94017a0 	ldr	x0, [x29, #40]
   83a00:	97ffff60 	bl	83780 <_ZN6memory20create_level_3_tableEm>
   83a04:	f90013a0 	str	x0, [x29, #32]
   83a08:	b9403fa0 	ldr	w0, [x29, #60]
   83a0c:	d37df000 	lsl	x0, x0, #3
   83a10:	f9401ba1 	ldr	x1, [x29, #48]
   83a14:	8b000020 	add	x0, x1, x0
   83a18:	f9000fa0 	str	x0, [x29, #24]
   83a1c:	f9400fa0 	ldr	x0, [x29, #24]
   83a20:	39400001 	ldrb	w1, [x0]
   83a24:	32000421 	orr	w1, w1, #0x3
   83a28:	39000001 	strb	w1, [x0]
   83a2c:	f9400fa0 	ldr	x0, [x29, #24]
   83a30:	39400001 	ldrb	w1, [x0]
   83a34:	12000421 	and	w1, w1, #0x3
   83a38:	39000001 	strb	w1, [x0]
   83a3c:	39400401 	ldrb	w1, [x0, #1]
   83a40:	52800002 	mov	w2, #0x0                   	// #0
   83a44:	0a020021 	and	w1, w1, w2
   83a48:	39000401 	strb	w1, [x0, #1]
   83a4c:	f94013a0 	ldr	x0, [x29, #32]
   83a50:	d350fc00 	lsr	x0, x0, #16
   83a54:	2a0003e1 	mov	w1, w0
   83a58:	f9400fa0 	ldr	x0, [x29, #24]
   83a5c:	2a0103e2 	mov	w2, w1
   83a60:	92401c44 	and	x4, x2, #0xff
   83a64:	39400802 	ldrb	w2, [x0, #2]
   83a68:	52800003 	mov	w3, #0x0                   	// #0
   83a6c:	0a030042 	and	w2, w2, w3
   83a70:	2a0203e3 	mov	w3, w2
   83a74:	2a0403e2 	mov	w2, w4
   83a78:	2a020062 	orr	w2, w3, w2
   83a7c:	39000802 	strb	w2, [x0, #2]
   83a80:	53087c22 	lsr	w2, w1, #8
   83a84:	2a0203e2 	mov	w2, w2
   83a88:	92401c44 	and	x4, x2, #0xff
   83a8c:	39400c02 	ldrb	w2, [x0, #3]
   83a90:	52800003 	mov	w3, #0x0                   	// #0
   83a94:	0a030042 	and	w2, w2, w3
   83a98:	2a0203e3 	mov	w3, w2
   83a9c:	2a0403e2 	mov	w2, w4
   83aa0:	2a020062 	orr	w2, w3, w2
   83aa4:	39000c02 	strb	w2, [x0, #3]
   83aa8:	53107c22 	lsr	w2, w1, #16
   83aac:	2a0203e2 	mov	w2, w2
   83ab0:	92401c44 	and	x4, x2, #0xff
   83ab4:	39401002 	ldrb	w2, [x0, #4]
   83ab8:	52800003 	mov	w3, #0x0                   	// #0
   83abc:	0a030042 	and	w2, w2, w3
   83ac0:	2a0203e3 	mov	w3, w2
   83ac4:	2a0403e2 	mov	w2, w4
   83ac8:	2a020062 	orr	w2, w3, w2
   83acc:	39001002 	strb	w2, [x0, #4]
   83ad0:	53187c21 	lsr	w1, w1, #24
   83ad4:	2a0103e3 	mov	w3, w1
   83ad8:	39401401 	ldrb	w1, [x0, #5]
   83adc:	52800002 	mov	w2, #0x0                   	// #0
   83ae0:	0a020021 	and	w1, w1, w2
   83ae4:	2a0103e2 	mov	w2, w1
   83ae8:	2a0303e1 	mov	w1, w3
   83aec:	2a010041 	orr	w1, w2, w1
   83af0:	39001401 	strb	w1, [x0, #5]
   83af4:	f9400fa0 	ldr	x0, [x29, #24]
   83af8:	39401801 	ldrb	w1, [x0, #6]
   83afc:	121c6c21 	and	w1, w1, #0xfffffff0
   83b00:	39001801 	strb	w1, [x0, #6]
   83b04:	f9400fa0 	ldr	x0, [x29, #24]
   83b08:	39401801 	ldrb	w1, [x0, #6]
   83b0c:	12000c21 	and	w1, w1, #0xf
   83b10:	39001801 	strb	w1, [x0, #6]
   83b14:	39401c01 	ldrb	w1, [x0, #7]
   83b18:	121d7021 	and	w1, w1, #0xfffffff8
   83b1c:	39001c01 	strb	w1, [x0, #7]
   83b20:	f9400fa0 	ldr	x0, [x29, #24]
   83b24:	39401c01 	ldrb	w1, [x0, #7]
   83b28:	121c7821 	and	w1, w1, #0xfffffff7
   83b2c:	39001c01 	strb	w1, [x0, #7]
   83b30:	f9400fa0 	ldr	x0, [x29, #24]
   83b34:	39401c01 	ldrb	w1, [x0, #7]
   83b38:	121b7821 	and	w1, w1, #0xffffffef
   83b3c:	39001c01 	strb	w1, [x0, #7]
   83b40:	f9400fa0 	ldr	x0, [x29, #24]
   83b44:	39401c01 	ldrb	w1, [x0, #7]
   83b48:	12197421 	and	w1, w1, #0xffffff9f
   83b4c:	39001c01 	strb	w1, [x0, #7]
   83b50:	f9400fa0 	ldr	x0, [x29, #24]
   83b54:	39401c01 	ldrb	w1, [x0, #7]
   83b58:	12001821 	and	w1, w1, #0x7f
   83b5c:	39001c01 	strb	w1, [x0, #7]
   83b60:	b9403fa0 	ldr	w0, [x29, #60]
   83b64:	11000400 	add	w0, w0, #0x1
   83b68:	b9003fa0 	str	w0, [x29, #60]
   83b6c:	17ffff9e 	b	839e4 <_ZN6memory20create_level_2_tableEv+0x24>
   83b70:	97fffe68 	bl	83510 <_ZN6memory17data_sync_barrierEv>
   83b74:	f9401ba0 	ldr	x0, [x29, #48]
   83b78:	a8c47bfd 	ldp	x29, x30, [sp], #64
   83b7c:	d65f03c0 	ret

0000000000083b80 <_ZN3i2cC1ENS_6deviceE>:
   83b80:	d0000042 	adrp	x2, 8d000 <_ZN4font9monospaceE+0x5760>
   83b84:	91336042 	add	x2, x2, #0xcd8
   83b88:	f0000043 	adrp	x3, 8e000 <_ZN10buddy_heap14block_pointersE+0x48>
   83b8c:	912f2063 	add	x3, x3, #0xbc8
   83b90:	52800024 	mov	w4, #0x1                   	// #1
   83b94:	f8615842 	ldr	x2, [x2, w1, uxtw #3]
   83b98:	38214864 	strb	w4, [x3, w1, uxtw]
   83b9c:	b9000001 	str	w1, [x0]
   83ba0:	f9000402 	str	x2, [x0, #8]
   83ba4:	b9401040 	ldr	w0, [x2, #16]
   83ba8:	52001c00 	eor	w0, w0, #0xff
   83bac:	b9001040 	str	w0, [x2, #16]
   83bb0:	b9401040 	ldr	w0, [x2, #16]
   83bb4:	52001c00 	eor	w0, w0, #0xff
   83bb8:	b9001040 	str	w0, [x2, #16]
   83bbc:	d65f03c0 	ret

0000000000083bc0 <_ZN3i2cD1Ev>:
   83bc0:	b9400001 	ldr	w1, [x0]
   83bc4:	f0000040 	adrp	x0, 8e000 <_ZN10buddy_heap14block_pointersE+0x48>
   83bc8:	912f2000 	add	x0, x0, #0xbc8
   83bcc:	3821681f 	strb	wzr, [x0, x1]
   83bd0:	d65f03c0 	ret
   83bd4:	d503201f 	nop
   83bd8:	d503201f 	nop
   83bdc:	d503201f 	nop

0000000000083be0 <_ZN3i2c6createENS_6deviceE>:
   83be0:	a9bd7bfd 	stp	x29, x30, [sp, #-48]!
   83be4:	910003fd 	mov	x29, sp
   83be8:	f9000ff4 	str	x20, [sp, #24]
   83bec:	f0000054 	adrp	x20, 8e000 <_ZN10buddy_heap14block_pointersE+0x48>
   83bf0:	912f2294 	add	x20, x20, #0xbc8
   83bf4:	38614a80 	ldrb	w0, [x20, w1, uxtw]
   83bf8:	35000320 	cbnz	w0, 83c5c <_ZN3i2c6createENS_6deviceE+0x7c>
   83bfc:	f9000bb3 	str	x19, [x29, #16]
   83c00:	d2800200 	mov	x0, #0x10                  	// #16
   83c04:	f90013b5 	str	x21, [x29, #32]
   83c08:	2a0103f3 	mov	w19, w1
   83c0c:	2a0103f5 	mov	w21, w1
   83c10:	97fff700 	bl	81810 <_Znwm>
   83c14:	d0000041 	adrp	x1, 8d000 <_ZN4font9monospaceE+0x5760>
   83c18:	91336021 	add	x1, x1, #0xcd8
   83c1c:	52800022 	mov	w2, #0x1                   	// #1
   83c20:	38334a82 	strb	w2, [x20, w19, uxtw]
   83c24:	f9400ff4 	ldr	x20, [sp, #24]
   83c28:	f8757821 	ldr	x1, [x1, x21, lsl #3]
   83c2c:	f94013b5 	ldr	x21, [x29, #32]
   83c30:	b9401022 	ldr	w2, [x1, #16]
   83c34:	b9000013 	str	w19, [x0]
   83c38:	f9000401 	str	x1, [x0, #8]
   83c3c:	52001c42 	eor	w2, w2, #0xff
   83c40:	f9400bb3 	ldr	x19, [x29, #16]
   83c44:	b9001022 	str	w2, [x1, #16]
   83c48:	b9401022 	ldr	w2, [x1, #16]
   83c4c:	52001c42 	eor	w2, w2, #0xff
   83c50:	b9001022 	str	w2, [x1, #16]
   83c54:	a8c37bfd 	ldp	x29, x30, [sp], #48
   83c58:	d65f03c0 	ret
   83c5c:	d2800000 	mov	x0, #0x0                   	// #0
   83c60:	f9400ff4 	ldr	x20, [sp, #24]
   83c64:	a8c37bfd 	ldp	x29, x30, [sp], #48
   83c68:	d65f03c0 	ret
   83c6c:	00000000 	.inst	0x00000000 ; undefined

0000000000083c70 <_ZN6deviceC1Ev>:
   83c70:	d0000041 	adrp	x1, 8d000 <_ZN4font9monospaceE+0x5760>
   83c74:	91340021 	add	x1, x1, #0xd00
   83c78:	f9000001 	str	x1, [x0]
   83c7c:	d65f03c0 	ret

0000000000083c80 <_ZN6deviceD1Ev>:
   83c80:	d65f03c0 	ret
   83c84:	d503201f 	nop
   83c88:	d503201f 	nop
   83c8c:	d503201f 	nop

0000000000083c90 <_ZN6deviceD0Ev>:
   83c90:	d2800101 	mov	x1, #0x8                   	// #8
   83c94:	17fff6ef 	b	81850 <_ZdlPvm>
	...

0000000000083ca0 <_ZN19mailbox_framebufferC1Ev>:
   83ca0:	a9be7bfd 	stp	x29, x30, [sp, #-32]!
   83ca4:	910003fd 	mov	x29, sp
   83ca8:	f9000bf3 	str	x19, [sp, #16]
   83cac:	aa0003f3 	mov	x19, x0
   83cb0:	940003e8 	bl	84c50 <_ZN7mailbox10get_handleEv>
   83cb4:	52806403 	mov	w3, #0x320                 	// #800
   83cb8:	52803c02 	mov	w2, #0x1e0                 	// #480
   83cbc:	b900127f 	str	wzr, [x19, #16]
   83cc0:	52800401 	mov	w1, #0x20                  	// #32
   83cc4:	b900167f 	str	wzr, [x19, #20]
   83cc8:	b9001a7f 	str	wzr, [x19, #24]
   83ccc:	b9001e7f 	str	wzr, [x19, #28]
   83cd0:	b900227f 	str	wzr, [x19, #32]
   83cd4:	b900267f 	str	wzr, [x19, #36]
   83cd8:	b9002a7f 	str	wzr, [x19, #40]
   83cdc:	b9002e7f 	str	wzr, [x19, #44]
   83ce0:	b900327f 	str	wzr, [x19, #48]
   83ce4:	b900367f 	str	wzr, [x19, #52]
   83ce8:	b9001263 	str	w3, [x19, #16]
   83cec:	b9001662 	str	w2, [x19, #20]
   83cf0:	f9000260 	str	x0, [x19]
   83cf4:	b9401260 	ldr	w0, [x19, #16]
   83cf8:	b9001a60 	str	w0, [x19, #24]
   83cfc:	b9401660 	ldr	w0, [x19, #20]
   83d00:	b9001e60 	str	w0, [x19, #28]
   83d04:	b900227f 	str	wzr, [x19, #32]
   83d08:	b9002661 	str	w1, [x19, #36]
   83d0c:	b9002a7f 	str	wzr, [x19, #40]
   83d10:	b9002e7f 	str	wzr, [x19, #44]
   83d14:	b900327f 	str	wzr, [x19, #48]
   83d18:	b900367f 	str	wzr, [x19, #52]
   83d1c:	97fffcb5 	bl	82ff0 <_ZN6memory16clean_data_cacheEv>
   83d20:	97fffdfc 	bl	83510 <_ZN6memory17data_sync_barrierEv>
   83d24:	aa1303e0 	mov	x0, x19
   83d28:	f8410413 	ldr	x19, [x0], #16
   83d2c:	940003ed 	bl	84ce0 <_ZN7mailbox19translate_arm_to_vcEPv>
   83d30:	2a0003e1 	mov	w1, w0
   83d34:	52800022 	mov	w2, #0x1                   	// #1
   83d38:	aa1303e0 	mov	x0, x19
   83d3c:	940003f1 	bl	84d00 <_ZN7mailbox10write_readEjNS_7channelE>
   83d40:	97fffd50 	bl	83280 <_ZN6memory21invalidate_data_cacheEv>
   83d44:	f9400bf3 	ldr	x19, [sp, #16]
   83d48:	a8c27bfd 	ldp	x29, x30, [sp], #32
   83d4c:	17fffdf5 	b	83520 <_ZN6memory19data_memory_barrierEv>

0000000000083d50 <_ZN19mailbox_framebufferD1Ev>:
   83d50:	d65f03c0 	ret
   83d54:	d503201f 	nop
   83d58:	d503201f 	nop
   83d5c:	d503201f 	nop

0000000000083d60 <_ZN19mailbox_framebuffer15get_framebufferEv>:
   83d60:	b9403000 	ldr	w0, [x0, #48]
   83d64:	92407400 	and	x0, x0, #0x3fffffff
   83d68:	d65f03c0 	ret
   83d6c:	d503201f 	nop

0000000000083d70 <_ZN19mailbox_framebuffer21get_framebuffer_widthEv>:
   83d70:	b9401000 	ldr	w0, [x0, #16]
   83d74:	d65f03c0 	ret
   83d78:	d503201f 	nop
   83d7c:	d503201f 	nop

0000000000083d80 <_ZN19mailbox_framebuffer22get_framebuffer_heightEv>:
   83d80:	b9401400 	ldr	w0, [x0, #20]
   83d84:	d65f03c0 	ret
	...

0000000000083d90 <_ZN3gpuC1Ev>:
   83d90:	a9be7bfd 	stp	x29, x30, [sp, #-32]!
   83d94:	910003fd 	mov	x29, sp
   83d98:	f9000bf3 	str	x19, [sp, #16]
   83d9c:	aa0003f3 	mov	x19, x0
   83da0:	94000274 	bl	84770 <_ZN21mailbox_property_tags10get_handleEv>
   83da4:	528000a1 	mov	w1, #0x5                   	// #5
   83da8:	52965002 	mov	w2, #0xb280                	// #45696
   83dac:	72a1dcc2 	movk	w2, #0xee6, lsl #16
   83db0:	f9002a60 	str	x0, [x19, #80]
   83db4:	94000293 	bl	84800 <_ZN21mailbox_property_tags14set_clock_rateENS_8clock_idEj>
   83db8:	f9402a60 	ldr	x0, [x19, #80]
   83dbc:	52800021 	mov	w1, #0x1                   	// #1
   83dc0:	f9400bf3 	ldr	x19, [sp, #16]
   83dc4:	a8c27bfd 	ldp	x29, x30, [sp], #32
   83dc8:	140002aa 	b	84870 <_ZN21mailbox_property_tags10enable_qpuEb>
   83dcc:	d503201f 	nop

0000000000083dd0 <_ZN3gpuD1Ev>:
   83dd0:	d65f03c0 	ret
   83dd4:	d503201f 	nop
   83dd8:	d503201f 	nop
   83ddc:	d503201f 	nop

0000000000083de0 <_ZN3gpu19V3D_InitializeSceneEtt>:
   83de0:	a9bd7bfd 	stp	x29, x30, [sp, #-48]!
   83de4:	52800003 	mov	w3, #0x0                   	// #0
   83de8:	910003fd 	mov	x29, sp
   83dec:	a90153f3 	stp	x19, x20, [sp, #16]
   83df0:	aa0003f3 	mov	x19, x0
   83df4:	f9402800 	ldr	x0, [x0, #80]
   83df8:	12003c54 	and	w20, w2, #0xffff
   83dfc:	f90013f5 	str	x21, [sp, #32]
   83e00:	52820002 	mov	w2, #0x1000                	// #4096
   83e04:	12003c35 	and	w21, w1, #0xffff
   83e08:	52a00021 	mov	w1, #0x10000               	// #65536
   83e0c:	940002b5 	bl	848e0 <_ZN21mailbox_property_tags15allocate_memoryEjjNS_20allocate_memory_flagE>
   83e10:	2a0003e1 	mov	w1, w0
   83e14:	f9402a60 	ldr	x0, [x19, #80]
   83e18:	940002f6 	bl	849f0 <_ZN21mailbox_property_tags11lock_memoryEj>
   83e1c:	b9000260 	str	w0, [x19]
   83e20:	1100fe81 	add	w1, w20, #0x3f
   83e24:	f9402a60 	ldr	x0, [x19, #80]
   83e28:	1100fea2 	add	w2, w21, #0x3f
   83e2c:	13067c21 	asr	w1, w1, #6
   83e30:	79000a75 	strh	w21, [x19, #4]
   83e34:	13067c42 	asr	w2, w2, #6
   83e38:	79000e74 	strh	w20, [x19, #6]
   83e3c:	52800003 	mov	w3, #0x0                   	// #0
   83e40:	29020662 	stp	w2, w1, [x19, #16]
   83e44:	52880001 	mov	w1, #0x4000                	// #16384
   83e48:	b9003a61 	str	w1, [x19, #56]
   83e4c:	52820002 	mov	w2, #0x1000                	// #4096
   83e50:	52900001 	mov	w1, #0x8000                	// #32768
   83e54:	940002a3 	bl	848e0 <_ZN21mailbox_property_tags15allocate_memoryEjjNS_20allocate_memory_flagE>
   83e58:	2a0003e1 	mov	w1, w0
   83e5c:	f9402a60 	ldr	x0, [x19, #80]
   83e60:	940002e4 	bl	849f0 <_ZN21mailbox_property_tags11lock_memoryEj>
   83e64:	2a0003e1 	mov	w1, w0
   83e68:	11401002 	add	w2, w0, #0x4, lsl #12
   83e6c:	f9402a60 	ldr	x0, [x19, #80]
   83e70:	29078a61 	stp	w1, w2, [x19, #60]
   83e74:	52800003 	mov	w3, #0x0                   	// #0
   83e78:	52820002 	mov	w2, #0x1000                	// #4096
   83e7c:	52a00021 	mov	w1, #0x10000               	// #65536
   83e80:	94000298 	bl	848e0 <_ZN21mailbox_property_tags15allocate_memoryEjjNS_20allocate_memory_flagE>
   83e84:	2a0003e1 	mov	w1, w0
   83e88:	f9402a60 	ldr	x0, [x19, #80]
   83e8c:	940002d9 	bl	849f0 <_ZN21mailbox_property_tags11lock_memoryEj>
   83e90:	f94013f5 	ldr	x21, [sp, #32]
   83e94:	b9004a60 	str	w0, [x19, #72]
   83e98:	a94153f3 	ldp	x19, x20, [sp, #16]
   83e9c:	a8c37bfd 	ldp	x29, x30, [sp], #48
   83ea0:	d65f03c0 	ret
   83ea4:	d503201f 	nop
   83ea8:	d503201f 	nop
   83eac:	d503201f 	nop

0000000000083eb0 <_ZN3gpu22V3D_AddVertexesToSceneEv>:
   83eb0:	a9be7bfd 	stp	x29, x30, [sp, #-32]!
   83eb4:	52800064 	mov	w4, #0x3                   	// #3
   83eb8:	52820002 	mov	w2, #0x1000                	// #4096
   83ebc:	52800003 	mov	w3, #0x0                   	// #0
   83ec0:	910003fd 	mov	x29, sp
   83ec4:	f9000bf3 	str	x19, [sp, #16]
   83ec8:	aa0003f3 	mov	x19, x0
   83ecc:	f9402800 	ldr	x0, [x0, #80]
   83ed0:	52800a21 	mov	w1, #0x51                  	// #81
   83ed4:	b9002664 	str	w4, [x19, #36]
   83ed8:	b9002e64 	str	w4, [x19, #44]
   83edc:	94000281 	bl	848e0 <_ZN21mailbox_property_tags15allocate_memoryEjjNS_20allocate_memory_flagE>
   83ee0:	2a0003e1 	mov	w1, w0
   83ee4:	f9402a60 	ldr	x0, [x19, #80]
   83ee8:	b9002261 	str	w1, [x19, #32]
   83eec:	940002c1 	bl	849f0 <_ZN21mailbox_property_tags11lock_memoryEj>
   83ef0:	b9402265 	ldr	w5, [x19, #32]
   83ef4:	d2801004 	mov	x4, #0x80                  	// #128
   83ef8:	d28007e3 	mov	x3, #0x3f                  	// #63
   83efc:	12800fe7 	mov	w7, #0xffffff80            	// #-128
   83f00:	52800186 	mov	w6, #0xc                   	// #12
   83f04:	5280030b 	mov	w11, #0x18                  	// #24
   83f08:	2a0503e0 	mov	w0, w5
   83f0c:	5280002a 	mov	w10, #0x1                   	// #1
   83f10:	91006002 	add	x2, x0, #0x18
   83f14:	9100c001 	add	x1, x0, #0x30
   83f18:	52800049 	mov	w9, #0x2                   	// #2
   83f1c:	39400008 	ldrb	w8, [x0]
   83f20:	3900001f 	strb	wzr, [x0]
   83f24:	52800048 	mov	w8, #0x2                   	// #2
   83f28:	3940040c 	ldrb	w12, [x0, #1]
   83f2c:	3900041f 	strb	wzr, [x0, #1]
   83f30:	3940080c 	ldrb	w12, [x0, #2]
   83f34:	3900081f 	strb	wzr, [x0, #2]
   83f38:	39400c0c 	ldrb	w12, [x0, #3]
   83f3c:	39000c1f 	strb	wzr, [x0, #3]
   83f40:	3940100c 	ldrb	w12, [x0, #4]
   83f44:	3900101f 	strb	wzr, [x0, #4]
   83f48:	3940140c 	ldrb	w12, [x0, #5]
   83f4c:	3900141f 	strb	wzr, [x0, #5]
   83f50:	3940180c 	ldrb	w12, [x0, #6]
   83f54:	39001804 	strb	w4, [x0, #6]
   83f58:	39401c0c 	ldrb	w12, [x0, #7]
   83f5c:	39001c03 	strb	w3, [x0, #7]
   83f60:	3940200c 	ldrb	w12, [x0, #8]
   83f64:	3900201f 	strb	wzr, [x0, #8]
   83f68:	3940240c 	ldrb	w12, [x0, #9]
   83f6c:	3900241f 	strb	wzr, [x0, #9]
   83f70:	3940280c 	ldrb	w12, [x0, #10]
   83f74:	39002804 	strb	w4, [x0, #10]
   83f78:	39402c0c 	ldrb	w12, [x0, #11]
   83f7c:	39002c03 	strb	w3, [x0, #11]
   83f80:	3940300c 	ldrb	w12, [x0, #12]
   83f84:	3900301f 	strb	wzr, [x0, #12]
   83f88:	3940340c 	ldrb	w12, [x0, #13]
   83f8c:	3900341f 	strb	wzr, [x0, #13]
   83f90:	3940380c 	ldrb	w12, [x0, #14]
   83f94:	39003804 	strb	w4, [x0, #14]
   83f98:	39403c0c 	ldrb	w12, [x0, #15]
   83f9c:	39003c03 	strb	w3, [x0, #15]
   83fa0:	3940400c 	ldrb	w12, [x0, #16]
   83fa4:	3900401f 	strb	wzr, [x0, #16]
   83fa8:	3940440c 	ldrb	w12, [x0, #17]
   83fac:	3900441f 	strb	wzr, [x0, #17]
   83fb0:	3940480c 	ldrb	w12, [x0, #18]
   83fb4:	39004804 	strb	w4, [x0, #18]
   83fb8:	39404c0c 	ldrb	w12, [x0, #19]
   83fbc:	39004c03 	strb	w3, [x0, #19]
   83fc0:	3940500c 	ldrb	w12, [x0, #20]
   83fc4:	3900501f 	strb	wzr, [x0, #20]
   83fc8:	3940540c 	ldrb	w12, [x0, #21]
   83fcc:	3900541f 	strb	wzr, [x0, #21]
   83fd0:	3940580c 	ldrb	w12, [x0, #22]
   83fd4:	39005804 	strb	w4, [x0, #22]
   83fd8:	39405c0c 	ldrb	w12, [x0, #23]
   83fdc:	39005c03 	strb	w3, [x0, #23]
   83fe0:	3940600c 	ldrb	w12, [x0, #24]
   83fe4:	39006007 	strb	w7, [x0, #24]
   83fe8:	3940044c 	ldrb	w12, [x2, #1]
   83fec:	39000446 	strb	w6, [x2, #1]
   83ff0:	3940084c 	ldrb	w12, [x2, #2]
   83ff4:	3900085f 	strb	wzr, [x2, #2]
   83ff8:	39400c4c 	ldrb	w12, [x2, #3]
   83ffc:	39000c5f 	strb	wzr, [x2, #3]
   84000:	3940104c 	ldrb	w12, [x2, #4]
   84004:	3900105f 	strb	wzr, [x2, #4]
   84008:	3940144c 	ldrb	w12, [x2, #5]
   8400c:	3900145f 	strb	wzr, [x2, #5]
   84010:	3940184c 	ldrb	w12, [x2, #6]
   84014:	39001844 	strb	w4, [x2, #6]
   84018:	39401c4c 	ldrb	w12, [x2, #7]
   8401c:	39001c43 	strb	w3, [x2, #7]
   84020:	3940204c 	ldrb	w12, [x2, #8]
   84024:	3900205f 	strb	wzr, [x2, #8]
   84028:	3940244c 	ldrb	w12, [x2, #9]
   8402c:	3900245f 	strb	wzr, [x2, #9]
   84030:	3940284c 	ldrb	w12, [x2, #10]
   84034:	39002844 	strb	w4, [x2, #10]
   84038:	39402c4c 	ldrb	w12, [x2, #11]
   8403c:	39002c43 	strb	w3, [x2, #11]
   84040:	3940304c 	ldrb	w12, [x2, #12]
   84044:	3900305f 	strb	wzr, [x2, #12]
   84048:	3940344c 	ldrb	w12, [x2, #13]
   8404c:	3900345f 	strb	wzr, [x2, #13]
   84050:	3940384c 	ldrb	w12, [x2, #14]
   84054:	39003844 	strb	w4, [x2, #14]
   84058:	39403c4c 	ldrb	w12, [x2, #15]
   8405c:	39003c43 	strb	w3, [x2, #15]
   84060:	3940404c 	ldrb	w12, [x2, #16]
   84064:	3900405f 	strb	wzr, [x2, #16]
   84068:	3940444c 	ldrb	w12, [x2, #17]
   8406c:	3900445f 	strb	wzr, [x2, #17]
   84070:	3940484c 	ldrb	w12, [x2, #18]
   84074:	39004844 	strb	w4, [x2, #18]
   84078:	39404c4c 	ldrb	w12, [x2, #19]
   8407c:	39004c43 	strb	w3, [x2, #19]
   84080:	3940504c 	ldrb	w12, [x2, #20]
   84084:	3900505f 	strb	wzr, [x2, #20]
   84088:	3940544c 	ldrb	w12, [x2, #21]
   8408c:	3900545f 	strb	wzr, [x2, #21]
   84090:	3940584c 	ldrb	w12, [x2, #22]
   84094:	39005844 	strb	w4, [x2, #22]
   84098:	39405c4c 	ldrb	w12, [x2, #23]
   8409c:	39005c43 	strb	w3, [x2, #23]
   840a0:	3940c002 	ldrb	w2, [x0, #48]
   840a4:	3900c01f 	strb	wzr, [x0, #48]
   840a8:	39400420 	ldrb	w0, [x1, #1]
   840ac:	3900043f 	strb	wzr, [x1, #1]
   840b0:	39400820 	ldrb	w0, [x1, #2]
   840b4:	39000827 	strb	w7, [x1, #2]
   840b8:	39400c20 	ldrb	w0, [x1, #3]
   840bc:	39000c26 	strb	w6, [x1, #3]
   840c0:	39401020 	ldrb	w0, [x1, #4]
   840c4:	3900103f 	strb	wzr, [x1, #4]
   840c8:	39401420 	ldrb	w0, [x1, #5]
   840cc:	3900143f 	strb	wzr, [x1, #5]
   840d0:	39401820 	ldrb	w0, [x1, #6]
   840d4:	39001824 	strb	w4, [x1, #6]
   840d8:	39401c20 	ldrb	w0, [x1, #7]
   840dc:	39001c23 	strb	w3, [x1, #7]
   840e0:	39402020 	ldrb	w0, [x1, #8]
   840e4:	3900203f 	strb	wzr, [x1, #8]
   840e8:	39402420 	ldrb	w0, [x1, #9]
   840ec:	3900243f 	strb	wzr, [x1, #9]
   840f0:	39402820 	ldrb	w0, [x1, #10]
   840f4:	39002824 	strb	w4, [x1, #10]
   840f8:	39402c20 	ldrb	w0, [x1, #11]
   840fc:	39002c23 	strb	w3, [x1, #11]
   84100:	39403020 	ldrb	w0, [x1, #12]
   84104:	3900303f 	strb	wzr, [x1, #12]
   84108:	39403420 	ldrb	w0, [x1, #13]
   8410c:	3900343f 	strb	wzr, [x1, #13]
   84110:	39403820 	ldrb	w0, [x1, #14]
   84114:	39003824 	strb	w4, [x1, #14]
   84118:	39403c20 	ldrb	w0, [x1, #15]
   8411c:	39003c23 	strb	w3, [x1, #15]
   84120:	39404020 	ldrb	w0, [x1, #16]
   84124:	3900403f 	strb	wzr, [x1, #16]
   84128:	b9402660 	ldr	w0, [x19, #36]
   8412c:	39404422 	ldrb	w2, [x1, #17]
   84130:	3900443f 	strb	wzr, [x1, #17]
   84134:	39404822 	ldrb	w2, [x1, #18]
   84138:	1b0b1400 	madd	w0, w0, w11, w5
   8413c:	39004824 	strb	w4, [x1, #18]
   84140:	39404c22 	ldrb	w2, [x1, #19]
   84144:	39004c23 	strb	w3, [x1, #19]
   84148:	39405022 	ldrb	w2, [x1, #20]
   8414c:	3900503f 	strb	wzr, [x1, #20]
   84150:	2a0003e2 	mov	w2, w0
   84154:	39405425 	ldrb	w5, [x1, #21]
   84158:	3900543f 	strb	wzr, [x1, #21]
   8415c:	39405825 	ldrb	w5, [x1, #22]
   84160:	39005824 	strb	w4, [x1, #22]
   84164:	39405c24 	ldrb	w4, [x1, #23]
   84168:	39005c23 	strb	w3, [x1, #23]
   8416c:	b9002a60 	str	w0, [x19, #40]
   84170:	3900005f 	strb	wzr, [x2]
   84174:	3900044a 	strb	w10, [x2, #1]
   84178:	39000849 	strb	w9, [x2, #2]
   8417c:	b9003268 	str	w8, [x19, #48]
   84180:	f9400bf3 	ldr	x19, [sp, #16]
   84184:	a8c27bfd 	ldp	x29, x30, [sp], #32
   84188:	d65f03c0 	ret
   8418c:	d503201f 	nop

0000000000084190 <_ZN3gpu21V3D_AddShadderToSceneEPjj>:
   84190:	a9bd7bfd 	stp	x29, x30, [sp, #-48]!
   84194:	910003fd 	mov	x29, sp
   84198:	f90013f5 	str	x21, [sp, #32]
   8419c:	aa0003f5 	mov	x21, x0
   841a0:	b9400000 	ldr	w0, [x0]
   841a4:	a90153f3 	stp	x19, x20, [sp, #16]
   841a8:	2a0203f4 	mov	w20, w2
   841ac:	1101fc00 	add	w0, w0, #0x7f
   841b0:	aa0103f3 	mov	x19, x1
   841b4:	12196000 	and	w0, w0, #0xffffff80
   841b8:	b9000aa0 	str	w0, [x21, #8]
   841bc:	940002cd 	bl	84cf0 <_ZN7mailbox19translate_vc_to_armEj>
   841c0:	340007b4 	cbz	w20, 842b4 <_ZN3gpu21V3D_AddShadderToSceneEPjj+0x124>
   841c4:	51000683 	sub	w3, w20, #0x1
   841c8:	91001262 	add	x2, x19, #0x4
   841cc:	aa1303e1 	mov	x1, x19
   841d0:	8b234844 	add	x4, x2, w3, uxtw #2
   841d4:	d503201f 	nop
   841d8:	b8404422 	ldr	w2, [x1], #4
   841dc:	91001000 	add	x0, x0, #0x4
   841e0:	381fc002 	sturb	w2, [x0, #-4]
   841e4:	eb01009f 	cmp	x4, x1
   841e8:	d3483c46 	ubfx	x6, x2, #8, #8
   841ec:	d3505c45 	ubfx	x5, x2, #16, #8
   841f0:	381fd006 	sturb	w6, [x0, #-3]
   841f4:	53187c42 	lsr	w2, w2, #24
   841f8:	381fe005 	sturb	w5, [x0, #-2]
   841fc:	381ff002 	sturb	w2, [x0, #-1]
   84200:	54fffec1 	b.ne	841d8 <_ZN3gpu21V3D_AddShadderToSceneEPjj+0x48>  // b.any
   84204:	91000460 	add	x0, x3, #0x1
   84208:	531e7400 	lsl	w0, w0, #2
   8420c:	b9400aa1 	ldr	w1, [x21, #8]
   84210:	0b010000 	add	w0, w0, w1
   84214:	b90002a0 	str	w0, [x21]
   84218:	1101fc00 	add	w0, w0, #0x7f
   8421c:	12196000 	and	w0, w0, #0xffffff80
   84220:	b9000ea0 	str	w0, [x21, #12]
   84224:	940002b3 	bl	84cf0 <_ZN7mailbox19translate_vc_to_armEj>
   84228:	52800024 	mov	w4, #0x1                   	// #1
   8422c:	52800303 	mov	w3, #0x18                  	// #24
   84230:	39000004 	strb	w4, [x0]
   84234:	12800662 	mov	w2, #0xffffffcc            	// #-52
   84238:	39000403 	strb	w3, [x0, #1]
   8423c:	52800061 	mov	w1, #0x3                   	// #3
   84240:	39000802 	strb	w2, [x0, #2]
   84244:	39000c01 	strb	w1, [x0, #3]
   84248:	b9400aa1 	ldr	w1, [x21, #8]
   8424c:	39001001 	strb	w1, [x0, #4]
   84250:	3900201f 	strb	wzr, [x0, #8]
   84254:	3900241f 	strb	wzr, [x0, #9]
   84258:	d3483c23 	ubfx	x3, x1, #8, #8
   8425c:	d3505c22 	ubfx	x2, x1, #16, #8
   84260:	39001403 	strb	w3, [x0, #5]
   84264:	39001802 	strb	w2, [x0, #6]
   84268:	53187c21 	lsr	w1, w1, #24
   8426c:	39001c01 	strb	w1, [x0, #7]
   84270:	3900281f 	strb	wzr, [x0, #10]
   84274:	39002c1f 	strb	wzr, [x0, #11]
   84278:	b94022a1 	ldr	w1, [x21, #32]
   8427c:	39003001 	strb	w1, [x0, #12]
   84280:	d3483c23 	ubfx	x3, x1, #8, #8
   84284:	d3505c22 	ubfx	x2, x1, #16, #8
   84288:	39003403 	strb	w3, [x0, #13]
   8428c:	53187c21 	lsr	w1, w1, #24
   84290:	39003802 	strb	w2, [x0, #14]
   84294:	39003c01 	strb	w1, [x0, #15]
   84298:	b9400ea0 	ldr	w0, [x21, #12]
   8429c:	a94153f3 	ldp	x19, x20, [sp, #16]
   842a0:	11004000 	add	w0, w0, #0x10
   842a4:	b90002a0 	str	w0, [x21]
   842a8:	f94013f5 	ldr	x21, [sp, #32]
   842ac:	a8c37bfd 	ldp	x29, x30, [sp], #48
   842b0:	d65f03c0 	ret
   842b4:	52800000 	mov	w0, #0x0                   	// #0
   842b8:	17ffffd5 	b	8420c <_ZN3gpu21V3D_AddShadderToSceneEPjj+0x7c>
   842bc:	d503201f 	nop

00000000000842c0 <_ZN3gpu22V3D_SetupRenderControlEj>:
   842c0:	a9be7bfd 	stp	x29, x30, [sp, #-32]!
   842c4:	910003fd 	mov	x29, sp
   842c8:	a90153f3 	stp	x19, x20, [sp, #16]
   842cc:	aa0003f3 	mov	x19, x0
   842d0:	b9400000 	ldr	w0, [x0]
   842d4:	2a0103f4 	mov	w20, w1
   842d8:	1101fc00 	add	w0, w0, #0x7f
   842dc:	12196000 	and	w0, w0, #0xffffff80
   842e0:	b9001a60 	str	w0, [x19, #24]
   842e4:	94000283 	bl	84cf0 <_ZN7mailbox19translate_vc_to_armEj>
   842e8:	3900241f 	strb	wzr, [x0, #9]
   842ec:	5c000be0 	ldr	d0, 84468 <_ZN3gpu22V3D_SetupRenderControlEj+0x1a8>
   842f0:	d3483e81 	ubfx	x1, x20, #8, #8
   842f4:	3900281f 	strb	wzr, [x0, #10]
   842f8:	12800003 	mov	w3, #0xffffffff            	// #-1
   842fc:	39004001 	strb	w1, [x0, #16]
   84300:	52800e22 	mov	w2, #0x71                  	// #113
   84304:	39002003 	strb	w3, [x0, #8]
   84308:	d3505e81 	ubfx	x1, x20, #16, #8
   8430c:	39002c1f 	strb	wzr, [x0, #11]
   84310:	52800383 	mov	w3, #0x1c                  	// #28
   84314:	3900301f 	strb	wzr, [x0, #12]
   84318:	52800084 	mov	w4, #0x4                   	// #4
   8431c:	3900341f 	strb	wzr, [x0, #13]
   84320:	52800e68 	mov	w8, #0x73                  	// #115
   84324:	39003802 	strb	w2, [x0, #14]
   84328:	39003c14 	strb	w20, [x0, #15]
   8432c:	53187e94 	lsr	w20, w20, #24
   84330:	39004401 	strb	w1, [x0, #17]
   84334:	91008c01 	add	x1, x0, #0x23
   84338:	39004814 	strb	w20, [x0, #18]
   8433c:	fd000000 	str	d0, [x0]
   84340:	79400a62 	ldrh	w2, [x19, #4]
   84344:	39004c02 	strb	w2, [x0, #19]
   84348:	d3483c42 	ubfx	x2, x2, #8, #8
   8434c:	39005002 	strb	w2, [x0, #20]
   84350:	79400e62 	ldrh	w2, [x19, #6]
   84354:	39005402 	strb	w2, [x0, #21]
   84358:	39005c04 	strb	w4, [x0, #23]
   8435c:	3900601f 	strb	wzr, [x0, #24]
   84360:	d3483c42 	ubfx	x2, x2, #8, #8
   84364:	39005802 	strb	w2, [x0, #22]
   84368:	39006408 	strb	w8, [x0, #25]
   8436c:	3900681f 	strb	wzr, [x0, #26]
   84370:	39006c1f 	strb	wzr, [x0, #27]
   84374:	39007003 	strb	w3, [x0, #28]
   84378:	3900741f 	strb	wzr, [x0, #29]
   8437c:	3900781f 	strb	wzr, [x0, #30]
   84380:	39007c1f 	strb	wzr, [x0, #31]
   84384:	3900801f 	strb	wzr, [x0, #32]
   84388:	3900841f 	strb	wzr, [x0, #33]
   8438c:	3900881f 	strb	wzr, [x0, #34]
   84390:	b9401263 	ldr	w3, [x19, #16]
   84394:	34000583 	cbz	w3, 84444 <_ZN3gpu22V3D_SetupRenderControlEj+0x184>
   84398:	b9401662 	ldr	w2, [x19, #20]
   8439c:	52800005 	mov	w5, #0x0                   	// #0
   843a0:	52800229 	mov	w9, #0x11                  	// #17
   843a4:	d503201f 	nop
   843a8:	34000482 	cbz	w2, 84438 <_ZN3gpu22V3D_SetupRenderControlEj+0x178>
   843ac:	12001ca7 	and	w7, w5, #0xff
   843b0:	52800003 	mov	w3, #0x0                   	// #0
   843b4:	d503201f 	nop
   843b8:	39000028 	strb	w8, [x1]
   843bc:	91002421 	add	x1, x1, #0x9
   843c0:	381f8027 	sturb	w7, [x1, #-8]
   843c4:	52800304 	mov	w4, #0x18                  	// #24
   843c8:	381f9023 	sturb	w3, [x1, #-7]
   843cc:	381fa029 	sturb	w9, [x1, #-6]
   843d0:	b9401262 	ldr	w2, [x19, #16]
   843d4:	b9404266 	ldr	w6, [x19, #64]
   843d8:	1b021462 	madd	w2, w3, w2, w5
   843dc:	0b0214c2 	add	w2, w6, w2, lsl #5
   843e0:	381fb022 	sturb	w2, [x1, #-5]
   843e4:	53187c46 	lsr	w6, w2, #24
   843e8:	381fe026 	sturb	w6, [x1, #-2]
   843ec:	d3483c46 	ubfx	x6, x2, #8, #8
   843f0:	d3505c42 	ubfx	x2, x2, #16, #8
   843f4:	381fc026 	sturb	w6, [x1, #-4]
   843f8:	381fd022 	sturb	w2, [x1, #-3]
   843fc:	b9401262 	ldr	w2, [x19, #16]
   84400:	51000442 	sub	w2, w2, #0x1
   84404:	6b05005f 	cmp	w2, w5
   84408:	540000c1 	b.ne	84420 <_ZN3gpu22V3D_SetupRenderControlEj+0x160>  // b.any
   8440c:	b9401662 	ldr	w2, [x19, #20]
   84410:	51000442 	sub	w2, w2, #0x1
   84414:	6b02007f 	cmp	w3, w2
   84418:	1a9f17e4 	cset	w4, eq  // eq = none
   8441c:	11006084 	add	w4, w4, #0x18
   84420:	381ff024 	sturb	w4, [x1, #-1]
   84424:	11000463 	add	w3, w3, #0x1
   84428:	b9401662 	ldr	w2, [x19, #20]
   8442c:	6b02007f 	cmp	w3, w2
   84430:	54fffc43 	b.cc	843b8 <_ZN3gpu22V3D_SetupRenderControlEj+0xf8>  // b.lo, b.ul, b.last
   84434:	b9401263 	ldr	w3, [x19, #16]
   84438:	110004a5 	add	w5, w5, #0x1
   8443c:	6b0300bf 	cmp	w5, w3
   84440:	54fffb43 	b.cc	843a8 <_ZN3gpu22V3D_SetupRenderControlEj+0xe8>  // b.lo, b.ul, b.last
   84444:	b9401a62 	ldr	w2, [x19, #24]
   84448:	cb000021 	sub	x1, x1, x0
   8444c:	0b010041 	add	w1, w2, w1
   84450:	b9000261 	str	w1, [x19]
   84454:	b9001e61 	str	w1, [x19, #28]
   84458:	a94153f3 	ldp	x19, x20, [sp, #16]
   8445c:	a8c27bfd 	ldp	x29, x30, [sp], #32
   84460:	d65f03c0 	ret
   84464:	d503201f 	nop
   84468:	00000072 	.word	0x00000072
   8446c:	000000ff 	.word	0x000000ff

0000000000084470 <_ZN3gpu22V3D_SetupBinningConfigEv>:
   84470:	a9be7bfd 	stp	x29, x30, [sp, #-32]!
   84474:	910003fd 	mov	x29, sp
   84478:	f9000bf3 	str	x19, [sp, #16]
   8447c:	aa0003f3 	mov	x19, x0
   84480:	b9404800 	ldr	w0, [x0, #72]
   84484:	9400021b 	bl	84cf0 <_ZN7mailbox19translate_vc_to_armEj>
   84488:	52800e01 	mov	w1, #0x70                  	// #112
   8448c:	39000001 	strb	w1, [x0]
   84490:	52800082 	mov	w2, #0x4                   	// #4
   84494:	528000ce 	mov	w14, #0x6                   	// #6
   84498:	b9404261 	ldr	w1, [x19, #64]
   8449c:	5280070d 	mov	w13, #0x38                  	// #56
   844a0:	39000401 	strb	w1, [x0, #1]
   844a4:	5280064c 	mov	w12, #0x32                  	// #50
   844a8:	52800ccb 	mov	w11, #0x66                  	// #102
   844ac:	52800c0a 	mov	w10, #0x60                  	// #96
   844b0:	d3483c24 	ubfx	x4, x1, #8, #8
   844b4:	d3505c23 	ubfx	x3, x1, #16, #8
   844b8:	39000804 	strb	w4, [x0, #2]
   844bc:	53187c21 	lsr	w1, w1, #24
   844c0:	39000c03 	strb	w3, [x0, #3]
   844c4:	52800069 	mov	w9, #0x3                   	// #3
   844c8:	39001001 	strb	w1, [x0, #4]
   844cc:	52800048 	mov	w8, #0x2                   	// #2
   844d0:	52800ce7 	mov	w7, #0x67                  	// #103
   844d4:	52800826 	mov	w6, #0x41                  	// #65
   844d8:	b9403a61 	ldr	w1, [x19, #56]
   844dc:	52800405 	mov	w5, #0x20                  	// #32
   844e0:	39001401 	strb	w1, [x0, #5]
   844e4:	528000a4 	mov	w4, #0x5                   	// #5
   844e8:	52800023 	mov	w3, #0x1                   	// #1
   844ec:	d3483c30 	ubfx	x16, x1, #8, #8
   844f0:	d3505c2f 	ubfx	x15, x1, #16, #8
   844f4:	39001810 	strb	w16, [x0, #6]
   844f8:	53187c21 	lsr	w1, w1, #24
   844fc:	39001c0f 	strb	w15, [x0, #7]
   84500:	39002001 	strb	w1, [x0, #8]
   84504:	b9403e61 	ldr	w1, [x19, #60]
   84508:	39002401 	strb	w1, [x0, #9]
   8450c:	d3483c30 	ubfx	x16, x1, #8, #8
   84510:	d3505c2f 	ubfx	x15, x1, #16, #8
   84514:	39002810 	strb	w16, [x0, #10]
   84518:	53187c21 	lsr	w1, w1, #24
   8451c:	39002c0f 	strb	w15, [x0, #11]
   84520:	39003001 	strb	w1, [x0, #12]
   84524:	b9401261 	ldr	w1, [x19, #16]
   84528:	39003401 	strb	w1, [x0, #13]
   8452c:	b9401661 	ldr	w1, [x19, #20]
   84530:	39003801 	strb	w1, [x0, #14]
   84534:	39003c02 	strb	w2, [x0, #15]
   84538:	3900400e 	strb	w14, [x0, #16]
   8453c:	3900440d 	strb	w13, [x0, #17]
   84540:	3900480c 	strb	w12, [x0, #18]
   84544:	39004c0b 	strb	w11, [x0, #19]
   84548:	3900501f 	strb	wzr, [x0, #20]
   8454c:	3900541f 	strb	wzr, [x0, #21]
   84550:	3900581f 	strb	wzr, [x0, #22]
   84554:	39005c1f 	strb	wzr, [x0, #23]
   84558:	79400a61 	ldrh	w1, [x19, #4]
   8455c:	39006001 	strb	w1, [x0, #24]
   84560:	d3483c21 	ubfx	x1, x1, #8, #8
   84564:	39006401 	strb	w1, [x0, #25]
   84568:	79400e61 	ldrh	w1, [x19, #6]
   8456c:	39006801 	strb	w1, [x0, #26]
   84570:	3900700a 	strb	w10, [x0, #28]
   84574:	39007409 	strb	w9, [x0, #29]
   84578:	d3483c21 	ubfx	x1, x1, #8, #8
   8457c:	39006c01 	strb	w1, [x0, #27]
   84580:	3900781f 	strb	wzr, [x0, #30]
   84584:	39007c08 	strb	w8, [x0, #31]
   84588:	39008007 	strb	w7, [x0, #32]
   8458c:	3900841f 	strb	wzr, [x0, #33]
   84590:	3900881f 	strb	wzr, [x0, #34]
   84594:	39008c1f 	strb	wzr, [x0, #35]
   84598:	3900901f 	strb	wzr, [x0, #36]
   8459c:	39009406 	strb	w6, [x0, #37]
   845a0:	b9400e61 	ldr	w1, [x19, #12]
   845a4:	39009801 	strb	w1, [x0, #38]
   845a8:	3900a805 	strb	w5, [x0, #42]
   845ac:	3900ac02 	strb	w2, [x0, #43]
   845b0:	d3483c25 	ubfx	x5, x1, #8, #8
   845b4:	d3505c22 	ubfx	x2, x1, #16, #8
   845b8:	39009c05 	strb	w5, [x0, #39]
   845bc:	3900a002 	strb	w2, [x0, #40]
   845c0:	53187c21 	lsr	w1, w1, #24
   845c4:	3900a401 	strb	w1, [x0, #41]
   845c8:	b9402e61 	ldr	w1, [x19, #44]
   845cc:	3900b001 	strb	w1, [x0, #44]
   845d0:	d3483c25 	ubfx	x5, x1, #8, #8
   845d4:	d3505c22 	ubfx	x2, x1, #16, #8
   845d8:	3900b405 	strb	w5, [x0, #45]
   845dc:	53187c21 	lsr	w1, w1, #24
   845e0:	3900b802 	strb	w2, [x0, #46]
   845e4:	3900bc01 	strb	w1, [x0, #47]
   845e8:	b9402a61 	ldr	w1, [x19, #40]
   845ec:	3900c001 	strb	w1, [x0, #48]
   845f0:	d3483c25 	ubfx	x5, x1, #8, #8
   845f4:	d3505c22 	ubfx	x2, x1, #16, #8
   845f8:	3900c405 	strb	w5, [x0, #49]
   845fc:	53187c21 	lsr	w1, w1, #24
   84600:	3900c802 	strb	w2, [x0, #50]
   84604:	3900cc01 	strb	w1, [x0, #51]
   84608:	b9403261 	ldr	w1, [x19, #48]
   8460c:	3900d001 	strb	w1, [x0, #52]
   84610:	d3483c25 	ubfx	x5, x1, #8, #8
   84614:	d3505c22 	ubfx	x2, x1, #16, #8
   84618:	3900d405 	strb	w5, [x0, #53]
   8461c:	53187c21 	lsr	w1, w1, #24
   84620:	3900d802 	strb	w2, [x0, #54]
   84624:	3900dc01 	strb	w1, [x0, #55]
   84628:	3900e004 	strb	w4, [x0, #56]
   8462c:	3900e403 	strb	w3, [x0, #57]
   84630:	3900e81f 	strb	wzr, [x0, #58]
   84634:	b9404a60 	ldr	w0, [x19, #72]
   84638:	1100ec00 	add	w0, w0, #0x3b
   8463c:	b9004e60 	str	w0, [x19, #76]
   84640:	f9400bf3 	ldr	x19, [sp, #16]
   84644:	a8c27bfd 	ldp	x29, x30, [sp], #32
   84648:	d65f03c0 	ret
   8464c:	d503201f 	nop

0000000000084650 <_ZN3gpu15V3D_RenderSceneEv>:
   84650:	d2800403 	mov	x3, #0x20                  	// #32
   84654:	f2a7f803 	movk	x3, #0x3fc0, lsl #16
   84658:	d2800482 	mov	x2, #0x24                  	// #36
   8465c:	f2a7f802 	movk	x2, #0x3fc0, lsl #16
   84660:	d2802001 	mov	x1, #0x100                 	// #256
   84664:	f2a7f801 	movk	x1, #0x3fc0, lsl #16
   84668:	52800084 	mov	w4, #0x4                   	// #4
   8466c:	b9000064 	str	w4, [x3]
   84670:	3200cfe3 	mov	w3, #0xf0f0f0f             	// #252645135
   84674:	b9000043 	str	w3, [x2]
   84678:	aa0103e2 	mov	x2, x1
   8467c:	52800403 	mov	w3, #0x20                  	// #32
   84680:	b9000023 	str	w3, [x1]
   84684:	d503201f 	nop
   84688:	b9400041 	ldr	w1, [x2]
   8468c:	372fffe1 	tbnz	w1, #5, 84688 <_ZN3gpu15V3D_RenderSceneEv+0x38>
   84690:	d2802682 	mov	x2, #0x134                 	// #308
   84694:	f2a7f802 	movk	x2, #0x3fc0, lsl #16
   84698:	52800024 	mov	w4, #0x1                   	// #1
   8469c:	d2802203 	mov	x3, #0x110                 	// #272
   846a0:	f2a7f803 	movk	x3, #0x3fc0, lsl #16
   846a4:	b9000044 	str	w4, [x2]
   846a8:	d2802101 	mov	x1, #0x108                 	// #264
   846ac:	f2a7f801 	movk	x1, #0x3fc0, lsl #16
   846b0:	b9404804 	ldr	w4, [x0, #72]
   846b4:	b9000064 	str	w4, [x3]
   846b8:	b9404c03 	ldr	w3, [x0, #76]
   846bc:	b9000023 	str	w3, [x1]
   846c0:	b9400041 	ldr	w1, [x2]
   846c4:	34ffffe1 	cbz	w1, 846c0 <_ZN3gpu15V3D_RenderSceneEv+0x70>
   846c8:	d2802081 	mov	x1, #0x104                 	// #260
   846cc:	f2a7f801 	movk	x1, #0x3fc0, lsl #16
   846d0:	aa0103e2 	mov	x2, x1
   846d4:	52800403 	mov	w3, #0x20                  	// #32
   846d8:	b9000023 	str	w3, [x1]
   846dc:	d503201f 	nop
   846e0:	b9400041 	ldr	w1, [x2]
   846e4:	372fffe1 	tbnz	w1, #5, 846e0 <_ZN3gpu15V3D_RenderSceneEv+0x90>
   846e8:	d2802701 	mov	x1, #0x138                 	// #312
   846ec:	f2a7f801 	movk	x1, #0x3fc0, lsl #16
   846f0:	52800024 	mov	w4, #0x1                   	// #1
   846f4:	d2802283 	mov	x3, #0x114                 	// #276
   846f8:	f2a7f803 	movk	x3, #0x3fc0, lsl #16
   846fc:	b9000024 	str	w4, [x1]
   84700:	d2802182 	mov	x2, #0x10c                 	// #268
   84704:	f2a7f802 	movk	x2, #0x3fc0, lsl #16
   84708:	b9401804 	ldr	w4, [x0, #24]
   8470c:	b9000064 	str	w4, [x3]
   84710:	b9401c00 	ldr	w0, [x0, #28]
   84714:	b9000040 	str	w0, [x2]
   84718:	b9400020 	ldr	w0, [x1]
   8471c:	34ffffe0 	cbz	w0, 84718 <_ZN3gpu15V3D_RenderSceneEv+0xc8>
   84720:	d65f03c0 	ret
	...

0000000000084730 <_ZN21mailbox_property_tagsD1Ev>:
   84730:	d65f03c0 	ret
   84734:	d503201f 	nop
   84738:	d503201f 	nop
   8473c:	d503201f 	nop

0000000000084740 <_ZN21mailbox_property_tagsC1Ev>:
   84740:	a9be7bfd 	stp	x29, x30, [sp, #-32]!
   84744:	910003fd 	mov	x29, sp
   84748:	f9000bf3 	str	x19, [sp, #16]
   8474c:	aa0003f3 	mov	x19, x0
   84750:	94000140 	bl	84c50 <_ZN7mailbox10get_handleEv>
   84754:	f9000260 	str	x0, [x19]
   84758:	f9400bf3 	ldr	x19, [sp, #16]
   8475c:	a8c27bfd 	ldp	x29, x30, [sp], #32
   84760:	d65f03c0 	ret
   84764:	d503201f 	nop
   84768:	d503201f 	nop
   8476c:	d503201f 	nop

0000000000084770 <_ZN21mailbox_property_tags10get_handleEv>:
   84770:	a9bd7bfd 	stp	x29, x30, [sp, #-48]!
   84774:	910003fd 	mov	x29, sp
   84778:	a90153f3 	stp	x19, x20, [sp, #16]
   8477c:	d0000053 	adrp	x19, 8e000 <_ZN10buddy_heap14block_pointersE+0x48>
   84780:	912f4274 	add	x20, x19, #0xbd0
   84784:	08dffe80 	ldarb	w0, [x20]
   84788:	360000c0 	tbz	w0, #0, 847a0 <_ZN21mailbox_property_tags10get_handleEv+0x30>
   8478c:	912f4260 	add	x0, x19, #0xbd0
   84790:	91002000 	add	x0, x0, #0x8
   84794:	a94153f3 	ldp	x19, x20, [sp, #16]
   84798:	a8c37bfd 	ldp	x29, x30, [sp], #48
   8479c:	d65f03c0 	ret
   847a0:	aa1403e0 	mov	x0, x20
   847a4:	97fff217 	bl	81000 <__cxa_guard_acquire>
   847a8:	34ffff20 	cbz	w0, 8478c <_ZN21mailbox_property_tags10get_handleEv+0x1c>
   847ac:	f90013b5 	str	x21, [x29, #32]
   847b0:	94000128 	bl	84c50 <_ZN7mailbox10get_handleEv>
   847b4:	91002295 	add	x21, x20, #0x8
   847b8:	f9000680 	str	x0, [x20, #8]
   847bc:	aa1403e0 	mov	x0, x20
   847c0:	97fff214 	bl	81010 <__cxa_guard_release>
   847c4:	aa1503e1 	mov	x1, x21
   847c8:	90ffffe2 	adrp	x2, 80000 <__text_start>
   847cc:	90000000 	adrp	x0, 84000 <_ZN3gpu22V3D_AddVertexesToSceneEv+0x150>
   847d0:	913fc042 	add	x2, x2, #0xff0
   847d4:	911cc000 	add	x0, x0, #0x730
   847d8:	97fff212 	bl	81020 <__cxa_atexit>
   847dc:	912f4260 	add	x0, x19, #0xbd0
   847e0:	f94013b5 	ldr	x21, [x29, #32]
   847e4:	91002000 	add	x0, x0, #0x8
   847e8:	a94153f3 	ldp	x19, x20, [sp, #16]
   847ec:	a8c37bfd 	ldp	x29, x30, [sp], #48
   847f0:	d65f03c0 	ret
   847f4:	d503201f 	nop
   847f8:	d503201f 	nop
   847fc:	d503201f 	nop

0000000000084800 <_ZN21mailbox_property_tags14set_clock_rateENS_8clock_idEj>:
   84800:	a9bc7bfd 	stp	x29, x30, [sp, #-64]!
   84804:	b0000043 	adrp	x3, 8d000 <_ZN4font9monospaceE+0x5760>
   84808:	912e8064 	add	x4, x3, #0xba0
   8480c:	910003fd 	mov	x29, sp
   84810:	f945d063 	ldr	x3, [x3, #2976]
   84814:	f9000bf3 	str	x19, [sp, #16]
   84818:	f9400013 	ldr	x19, [x0]
   8481c:	52800400 	mov	w0, #0x20                  	// #32
   84820:	b90023a0 	str	w0, [x29, #32]
   84824:	b9400880 	ldr	w0, [x4, #8]
   84828:	b90027bf 	str	wzr, [x29, #36]
   8482c:	f90017a3 	str	x3, [x29, #40]
   84830:	b90033a0 	str	w0, [x29, #48]
   84834:	910083a0 	add	x0, x29, #0x20
   84838:	29068ba1 	stp	w1, w2, [x29, #52]
   8483c:	b9003fbf 	str	wzr, [x29, #60]
   84840:	94000128 	bl	84ce0 <_ZN7mailbox19translate_arm_to_vcEPv>
   84844:	52800102 	mov	w2, #0x8                   	// #8
   84848:	2a0003e1 	mov	w1, w0
   8484c:	aa1303e0 	mov	x0, x19
   84850:	9400012c 	bl	84d00 <_ZN7mailbox10write_readEjNS_7channelE>
   84854:	b94027a1 	ldr	w1, [x29, #36]
   84858:	52b00000 	mov	w0, #0x80000000            	// #-2147483648
   8485c:	f9400bf3 	ldr	x19, [sp, #16]
   84860:	6b00003f 	cmp	w1, w0
   84864:	1a9f17e0 	cset	w0, eq  // eq = none
   84868:	a8c47bfd 	ldp	x29, x30, [sp], #64
   8486c:	d65f03c0 	ret

0000000000084870 <_ZN21mailbox_property_tags10enable_qpuEb>:
   84870:	a9bc7bfd 	stp	x29, x30, [sp, #-64]!
   84874:	b0000041 	adrp	x1, 8d000 <_ZN4font9monospaceE+0x5760>
   84878:	912e8021 	add	x1, x1, #0xba0
   8487c:	910003fd 	mov	x29, sp
   84880:	f9000bf3 	str	x19, [sp, #16]
   84884:	f9400822 	ldr	x2, [x1, #16]
   84888:	f9400013 	ldr	x19, [x0]
   8488c:	52800400 	mov	w0, #0x20                  	// #32
   84890:	b90023a0 	str	w0, [x29, #32]
   84894:	b9401820 	ldr	w0, [x1, #24]
   84898:	52800021 	mov	w1, #0x1                   	// #1
   8489c:	b90027bf 	str	wzr, [x29, #36]
   848a0:	f90017a2 	str	x2, [x29, #40]
   848a4:	290607a0 	stp	w0, w1, [x29, #48]
   848a8:	910083a0 	add	x0, x29, #0x20
   848ac:	b9003bbf 	str	wzr, [x29, #56]
   848b0:	9400010c 	bl	84ce0 <_ZN7mailbox19translate_arm_to_vcEPv>
   848b4:	52800102 	mov	w2, #0x8                   	// #8
   848b8:	2a0003e1 	mov	w1, w0
   848bc:	aa1303e0 	mov	x0, x19
   848c0:	94000110 	bl	84d00 <_ZN7mailbox10write_readEjNS_7channelE>
   848c4:	b94027a1 	ldr	w1, [x29, #36]
   848c8:	52b00000 	mov	w0, #0x80000000            	// #-2147483648
   848cc:	f9400bf3 	ldr	x19, [sp, #16]
   848d0:	6b00003f 	cmp	w1, w0
   848d4:	1a9f17e0 	cset	w0, eq  // eq = none
   848d8:	a8c47bfd 	ldp	x29, x30, [sp], #64
   848dc:	d65f03c0 	ret

00000000000848e0 <_ZN21mailbox_property_tags15allocate_memoryEjjNS_20allocate_memory_flagE>:
   848e0:	a9bb7bfd 	stp	x29, x30, [sp, #-80]!
   848e4:	b0000044 	adrp	x4, 8d000 <_ZN4font9monospaceE+0x5760>
   848e8:	912e8084 	add	x4, x4, #0xba0
   848ec:	910003fd 	mov	x29, sp
   848f0:	f9000bf3 	str	x19, [sp, #16]
   848f4:	f9400013 	ldr	x19, [x0]
   848f8:	52800600 	mov	w0, #0x30                  	// #48
   848fc:	29068ba1 	stp	w1, w2, [x29, #52]
   84900:	f9401081 	ldr	x1, [x4, #32]
   84904:	b90023a0 	str	w0, [x29, #32]
   84908:	b9402880 	ldr	w0, [x4, #40]
   8490c:	b90027bf 	str	wzr, [x29, #36]
   84910:	f90017a1 	str	x1, [x29, #40]
   84914:	b90033a0 	str	w0, [x29, #48]
   84918:	910083a0 	add	x0, x29, #0x20
   8491c:	2907ffa3 	stp	w3, wzr, [x29, #60]
   84920:	940000f0 	bl	84ce0 <_ZN7mailbox19translate_arm_to_vcEPv>
   84924:	52800102 	mov	w2, #0x8                   	// #8
   84928:	2a0003e1 	mov	w1, w0
   8492c:	aa1303e0 	mov	x0, x19
   84930:	940000f4 	bl	84d00 <_ZN7mailbox10write_readEjNS_7channelE>
   84934:	b94027a2 	ldr	w2, [x29, #36]
   84938:	52b00001 	mov	w1, #0x80000000            	// #-2147483648
   8493c:	b94037a0 	ldr	w0, [x29, #52]
   84940:	6b01005f 	cmp	w2, w1
   84944:	f9400bf3 	ldr	x19, [sp, #16]
   84948:	1a9f0000 	csel	w0, w0, wzr, eq  // eq = none
   8494c:	a8c57bfd 	ldp	x29, x30, [sp], #80
   84950:	d65f03c0 	ret
   84954:	d503201f 	nop
   84958:	d503201f 	nop
   8495c:	d503201f 	nop

0000000000084960 <_ZN21mailbox_property_tags14release_memoryEj>:
   84960:	a9bc7bfd 	stp	x29, x30, [sp, #-64]!
   84964:	b0000042 	adrp	x2, 8d000 <_ZN4font9monospaceE+0x5760>
   84968:	912e8042 	add	x2, x2, #0xba0
   8496c:	910003fd 	mov	x29, sp
   84970:	f9000bf3 	str	x19, [sp, #16]
   84974:	f9400013 	ldr	x19, [x0]
   84978:	52800400 	mov	w0, #0x20                  	// #32
   8497c:	2906ffa1 	stp	w1, wzr, [x29, #52]
   84980:	f9401841 	ldr	x1, [x2, #48]
   84984:	b90023a0 	str	w0, [x29, #32]
   84988:	b9403840 	ldr	w0, [x2, #56]
   8498c:	b90027bf 	str	wzr, [x29, #36]
   84990:	f90017a1 	str	x1, [x29, #40]
   84994:	b90033a0 	str	w0, [x29, #48]
   84998:	910083a0 	add	x0, x29, #0x20
   8499c:	940000d1 	bl	84ce0 <_ZN7mailbox19translate_arm_to_vcEPv>
   849a0:	2a0003e1 	mov	w1, w0
   849a4:	52800102 	mov	w2, #0x8                   	// #8
   849a8:	aa1303e0 	mov	x0, x19
   849ac:	940000d5 	bl	84d00 <_ZN7mailbox10write_readEjNS_7channelE>
   849b0:	b94027a1 	ldr	w1, [x29, #36]
   849b4:	52b00000 	mov	w0, #0x80000000            	// #-2147483648
   849b8:	6b00003f 	cmp	w1, w0
   849bc:	540000a0 	b.eq	849d0 <_ZN21mailbox_property_tags14release_memoryEj+0x70>  // b.none
   849c0:	f9400bf3 	ldr	x19, [sp, #16]
   849c4:	52800000 	mov	w0, #0x0                   	// #0
   849c8:	a8c47bfd 	ldp	x29, x30, [sp], #64
   849cc:	d65f03c0 	ret
   849d0:	b94037a0 	ldr	w0, [x29, #52]
   849d4:	f9400bf3 	ldr	x19, [sp, #16]
   849d8:	7100001f 	cmp	w0, #0x0
   849dc:	1a9f17e0 	cset	w0, eq  // eq = none
   849e0:	a8c47bfd 	ldp	x29, x30, [sp], #64
   849e4:	d65f03c0 	ret
   849e8:	d503201f 	nop
   849ec:	d503201f 	nop

00000000000849f0 <_ZN21mailbox_property_tags11lock_memoryEj>:
   849f0:	a9bc7bfd 	stp	x29, x30, [sp, #-64]!
   849f4:	b0000042 	adrp	x2, 8d000 <_ZN4font9monospaceE+0x5760>
   849f8:	912e8042 	add	x2, x2, #0xba0
   849fc:	910003fd 	mov	x29, sp
   84a00:	f9000bf3 	str	x19, [sp, #16]
   84a04:	f9400013 	ldr	x19, [x0]
   84a08:	52800400 	mov	w0, #0x20                  	// #32
   84a0c:	2906ffa1 	stp	w1, wzr, [x29, #52]
   84a10:	f9402041 	ldr	x1, [x2, #64]
   84a14:	b90023a0 	str	w0, [x29, #32]
   84a18:	b9404840 	ldr	w0, [x2, #72]
   84a1c:	b90027bf 	str	wzr, [x29, #36]
   84a20:	f90017a1 	str	x1, [x29, #40]
   84a24:	b90033a0 	str	w0, [x29, #48]
   84a28:	910083a0 	add	x0, x29, #0x20
   84a2c:	940000ad 	bl	84ce0 <_ZN7mailbox19translate_arm_to_vcEPv>
   84a30:	2a0003e1 	mov	w1, w0
   84a34:	52800102 	mov	w2, #0x8                   	// #8
   84a38:	aa1303e0 	mov	x0, x19
   84a3c:	940000b1 	bl	84d00 <_ZN7mailbox10write_readEjNS_7channelE>
   84a40:	f9400bf3 	ldr	x19, [sp, #16]
   84a44:	b94027a2 	ldr	w2, [x29, #36]
   84a48:	52b00001 	mov	w1, #0x80000000            	// #-2147483648
   84a4c:	b94037a0 	ldr	w0, [x29, #52]
   84a50:	6b01005f 	cmp	w2, w1
   84a54:	1a9f0000 	csel	w0, w0, wzr, eq  // eq = none
   84a58:	a8c47bfd 	ldp	x29, x30, [sp], #64
   84a5c:	d65f03c0 	ret

0000000000084a60 <_ZN21mailbox_property_tags13unlock_memoryEj>:
   84a60:	a9bc7bfd 	stp	x29, x30, [sp, #-64]!
   84a64:	b0000042 	adrp	x2, 8d000 <_ZN4font9monospaceE+0x5760>
   84a68:	912e8042 	add	x2, x2, #0xba0
   84a6c:	910003fd 	mov	x29, sp
   84a70:	f9000bf3 	str	x19, [sp, #16]
   84a74:	f9400013 	ldr	x19, [x0]
   84a78:	52800400 	mov	w0, #0x20                  	// #32
   84a7c:	2906ffa1 	stp	w1, wzr, [x29, #52]
   84a80:	f9402841 	ldr	x1, [x2, #80]
   84a84:	b90023a0 	str	w0, [x29, #32]
   84a88:	b9405840 	ldr	w0, [x2, #88]
   84a8c:	b90027bf 	str	wzr, [x29, #36]
   84a90:	f90017a1 	str	x1, [x29, #40]
   84a94:	b90033a0 	str	w0, [x29, #48]
   84a98:	910083a0 	add	x0, x29, #0x20
   84a9c:	94000091 	bl	84ce0 <_ZN7mailbox19translate_arm_to_vcEPv>
   84aa0:	2a0003e1 	mov	w1, w0
   84aa4:	52800102 	mov	w2, #0x8                   	// #8
   84aa8:	aa1303e0 	mov	x0, x19
   84aac:	94000095 	bl	84d00 <_ZN7mailbox10write_readEjNS_7channelE>
   84ab0:	b94027a1 	ldr	w1, [x29, #36]
   84ab4:	52b00000 	mov	w0, #0x80000000            	// #-2147483648
   84ab8:	6b00003f 	cmp	w1, w0
   84abc:	540000a0 	b.eq	84ad0 <_ZN21mailbox_property_tags13unlock_memoryEj+0x70>  // b.none
   84ac0:	f9400bf3 	ldr	x19, [sp, #16]
   84ac4:	52800000 	mov	w0, #0x0                   	// #0
   84ac8:	a8c47bfd 	ldp	x29, x30, [sp], #64
   84acc:	d65f03c0 	ret
   84ad0:	b94037a0 	ldr	w0, [x29, #52]
   84ad4:	f9400bf3 	ldr	x19, [sp, #16]
   84ad8:	7100001f 	cmp	w0, #0x0
   84adc:	1a9f17e0 	cset	w0, eq  // eq = none
   84ae0:	a8c47bfd 	ldp	x29, x30, [sp], #64
   84ae4:	d65f03c0 	ret
   84ae8:	d503201f 	nop
   84aec:	d503201f 	nop

0000000000084af0 <_ZN21mailbox_property_tags12execute_codeEjjjjjjj>:
   84af0:	a9ba7bfd 	stp	x29, x30, [sp, #-96]!
   84af4:	b0000048 	adrp	x8, 8d000 <_ZN4font9monospaceE+0x5760>
   84af8:	912e8108 	add	x8, x8, #0xba0
   84afc:	910003fd 	mov	x29, sp
   84b00:	f9000bf3 	str	x19, [sp, #16]
   84b04:	f9400013 	ldr	x19, [x0]
   84b08:	52800800 	mov	w0, #0x40                  	// #64
   84b0c:	29068ba1 	stp	w1, w2, [x29, #52]
   84b10:	f9403101 	ldr	x1, [x8, #96]
   84b14:	b90023a0 	str	w0, [x29, #32]
   84b18:	b9406900 	ldr	w0, [x8, #104]
   84b1c:	b90027bf 	str	wzr, [x29, #36]
   84b20:	f90017a1 	str	x1, [x29, #40]
   84b24:	b90033a0 	str	w0, [x29, #48]
   84b28:	910083a0 	add	x0, x29, #0x20
   84b2c:	290793a3 	stp	w3, w4, [x29, #60]
   84b30:	29089ba5 	stp	w5, w6, [x29, #68]
   84b34:	b9004fa7 	str	w7, [x29, #76]
   84b38:	b90057bf 	str	wzr, [x29, #84]
   84b3c:	94000069 	bl	84ce0 <_ZN7mailbox19translate_arm_to_vcEPv>
   84b40:	52800102 	mov	w2, #0x8                   	// #8
   84b44:	2a0003e1 	mov	w1, w0
   84b48:	aa1303e0 	mov	x0, x19
   84b4c:	9400006d 	bl	84d00 <_ZN7mailbox10write_readEjNS_7channelE>
   84b50:	b94027a1 	ldr	w1, [x29, #36]
   84b54:	52b00000 	mov	w0, #0x80000000            	// #-2147483648
   84b58:	f9400bf3 	ldr	x19, [sp, #16]
   84b5c:	6b00003f 	cmp	w1, w0
   84b60:	1a9f17e0 	cset	w0, eq  // eq = none
   84b64:	a8c67bfd 	ldp	x29, x30, [sp], #96
   84b68:	d65f03c0 	ret
   84b6c:	d503201f 	nop

0000000000084b70 <_ZN21mailbox_property_tags11execute_qpuEjjjj>:
   84b70:	a9bb7bfd 	stp	x29, x30, [sp, #-80]!
   84b74:	b0000045 	adrp	x5, 8d000 <_ZN4font9monospaceE+0x5760>
   84b78:	912e80a5 	add	x5, x5, #0xba0
   84b7c:	910003fd 	mov	x29, sp
   84b80:	f9000bf3 	str	x19, [sp, #16]
   84b84:	f9400013 	ldr	x19, [x0]
   84b88:	52800600 	mov	w0, #0x30                  	// #48
   84b8c:	29068ba1 	stp	w1, w2, [x29, #52]
   84b90:	f94038a1 	ldr	x1, [x5, #112]
   84b94:	b90023a0 	str	w0, [x29, #32]
   84b98:	b94078a0 	ldr	w0, [x5, #120]
   84b9c:	b90027bf 	str	wzr, [x29, #36]
   84ba0:	f90017a1 	str	x1, [x29, #40]
   84ba4:	b90033a0 	str	w0, [x29, #48]
   84ba8:	910083a0 	add	x0, x29, #0x20
   84bac:	290793a3 	stp	w3, w4, [x29, #60]
   84bb0:	b90047bf 	str	wzr, [x29, #68]
   84bb4:	9400004b 	bl	84ce0 <_ZN7mailbox19translate_arm_to_vcEPv>
   84bb8:	52800102 	mov	w2, #0x8                   	// #8
   84bbc:	2a0003e1 	mov	w1, w0
   84bc0:	aa1303e0 	mov	x0, x19
   84bc4:	9400004f 	bl	84d00 <_ZN7mailbox10write_readEjNS_7channelE>
   84bc8:	b94027a1 	ldr	w1, [x29, #36]
   84bcc:	52b00000 	mov	w0, #0x80000000            	// #-2147483648
   84bd0:	6b00003f 	cmp	w1, w0
   84bd4:	540000e0 	b.eq	84bf0 <_ZN21mailbox_property_tags11execute_qpuEjjjj+0x80>  // b.none
   84bd8:	b9402fa0 	ldr	w0, [x29, #44]
   84bdc:	f9400bf3 	ldr	x19, [sp, #16]
   84be0:	7100001f 	cmp	w0, #0x0
   84be4:	1a9f07e0 	cset	w0, ne  // ne = any
   84be8:	a8c57bfd 	ldp	x29, x30, [sp], #80
   84bec:	d65f03c0 	ret
   84bf0:	f9400bf3 	ldr	x19, [sp, #16]
   84bf4:	52800020 	mov	w0, #0x1                   	// #1
   84bf8:	a8c57bfd 	ldp	x29, x30, [sp], #80
   84bfc:	d65f03c0 	ret

0000000000084c00 <_ZN5mutexC1Ev>:
   84c00:	3900001f 	strb	wzr, [x0]
   84c04:	d65f03c0 	ret
   84c08:	d503201f 	nop
   84c0c:	d503201f 	nop

0000000000084c10 <_ZN5mutex4lockEv>:
   84c10:	d65f03c0 	ret
   84c14:	d503201f 	nop
   84c18:	d503201f 	nop
   84c1c:	d503201f 	nop

0000000000084c20 <_ZN5mutex6unlockEv>:
   84c20:	d65f03c0 	ret
	...

0000000000084c30 <_ZN7mailboxD1Ev>:
   84c30:	d65f03c0 	ret
   84c34:	d503201f 	nop
   84c38:	d503201f 	nop
   84c3c:	d503201f 	nop

0000000000084c40 <_ZN7mailboxC1Ev>:
   84c40:	17fffff0 	b	84c00 <_ZN5mutexC1Ev>
   84c44:	d503201f 	nop
   84c48:	d503201f 	nop
   84c4c:	d503201f 	nop

0000000000084c50 <_ZN7mailbox10get_handleEv>:
   84c50:	a9bd7bfd 	stp	x29, x30, [sp, #-48]!
   84c54:	910003fd 	mov	x29, sp
   84c58:	a90153f3 	stp	x19, x20, [sp, #16]
   84c5c:	d0000053 	adrp	x19, 8e000 <_ZN10buddy_heap14block_pointersE+0x48>
   84c60:	912f8274 	add	x20, x19, #0xbe0
   84c64:	08dffe80 	ldarb	w0, [x20]
   84c68:	360000c0 	tbz	w0, #0, 84c80 <_ZN7mailbox10get_handleEv+0x30>
   84c6c:	912f8260 	add	x0, x19, #0xbe0
   84c70:	91002000 	add	x0, x0, #0x8
   84c74:	a94153f3 	ldp	x19, x20, [sp, #16]
   84c78:	a8c37bfd 	ldp	x29, x30, [sp], #48
   84c7c:	d65f03c0 	ret
   84c80:	aa1403e0 	mov	x0, x20
   84c84:	97fff0df 	bl	81000 <__cxa_guard_acquire>
   84c88:	34ffff20 	cbz	w0, 84c6c <_ZN7mailbox10get_handleEv+0x1c>
   84c8c:	f90013b5 	str	x21, [x29, #32]
   84c90:	91002295 	add	x21, x20, #0x8
   84c94:	aa1503e0 	mov	x0, x21
   84c98:	97ffffda 	bl	84c00 <_ZN5mutexC1Ev>
   84c9c:	aa1403e0 	mov	x0, x20
   84ca0:	97fff0dc 	bl	81010 <__cxa_guard_release>
   84ca4:	aa1503e1 	mov	x1, x21
   84ca8:	90ffffe2 	adrp	x2, 80000 <__text_start>
   84cac:	90000000 	adrp	x0, 84000 <_ZN3gpu22V3D_AddVertexesToSceneEv+0x150>
   84cb0:	913fc042 	add	x2, x2, #0xff0
   84cb4:	9130c000 	add	x0, x0, #0xc30
   84cb8:	97fff0da 	bl	81020 <__cxa_atexit>
   84cbc:	912f8260 	add	x0, x19, #0xbe0
   84cc0:	f94013b5 	ldr	x21, [x29, #32]
   84cc4:	91002000 	add	x0, x0, #0x8
   84cc8:	a94153f3 	ldp	x19, x20, [sp, #16]
   84ccc:	a8c37bfd 	ldp	x29, x30, [sp], #48
   84cd0:	d65f03c0 	ret
   84cd4:	d503201f 	nop
   84cd8:	d503201f 	nop
   84cdc:	d503201f 	nop

0000000000084ce0 <_ZN7mailbox19translate_arm_to_vcEPv>:
   84ce0:	32020400 	orr	w0, w0, #0xc0000000
   84ce4:	d65f03c0 	ret
   84ce8:	d503201f 	nop
   84cec:	d503201f 	nop

0000000000084cf0 <_ZN7mailbox19translate_vc_to_armEj>:
   84cf0:	92407400 	and	x0, x0, #0x3fffffff
   84cf4:	d65f03c0 	ret
   84cf8:	d503201f 	nop
   84cfc:	d503201f 	nop

0000000000084d00 <_ZN7mailbox10write_readEjNS_7channelE>:
   84d00:	a9bd7bfd 	stp	x29, x30, [sp, #-48]!
   84d04:	910003fd 	mov	x29, sp
   84d08:	a90153f3 	stp	x19, x20, [sp, #16]
   84d0c:	2a0103f3 	mov	w19, w1
   84d10:	f90013f5 	str	x21, [sp, #32]
   84d14:	2a0203f4 	mov	w20, w2
   84d18:	aa0003f5 	mov	x21, x0
   84d1c:	97ffffbd 	bl	84c10 <_ZN5mutex4lockEv>
   84d20:	d2971000 	mov	x0, #0xb880                	// #47232
   84d24:	f2a7e000 	movk	x0, #0x3f00, lsl #16
   84d28:	b9401801 	ldr	w1, [x0, #24]
   84d2c:	37f00081 	tbnz	w1, #30, 84d3c <_ZN7mailbox10write_readEjNS_7channelE+0x3c>
   84d30:	b9400001 	ldr	w1, [x0]
   84d34:	b9401803 	ldr	w3, [x0, #24]
   84d38:	36f7ffc3 	tbz	w3, #30, 84d30 <_ZN7mailbox10write_readEjNS_7channelE+0x30>
   84d3c:	d2971403 	mov	x3, #0xb8a0                	// #47264
   84d40:	f2a7e003 	movk	x3, #0x3f00, lsl #16
   84d44:	d503201f 	nop
   84d48:	b9401860 	ldr	w0, [x3, #24]
   84d4c:	37ffffe0 	tbnz	w0, #31, 84d48 <_ZN7mailbox10write_readEjNS_7channelE+0x48>
   84d50:	121c6e60 	and	w0, w19, #0xfffffff0
   84d54:	d2971001 	mov	x1, #0xb880                	// #47232
   84d58:	f2a7e001 	movk	x1, #0x3f00, lsl #16
   84d5c:	2a140000 	orr	w0, w0, w20
   84d60:	b9000060 	str	w0, [x3]
   84d64:	d503201f 	nop
   84d68:	b9401820 	ldr	w0, [x1, #24]
   84d6c:	37f7ffe0 	tbnz	w0, #30, 84d68 <_ZN7mailbox10write_readEjNS_7channelE+0x68>
   84d70:	b9400033 	ldr	w19, [x1]
   84d74:	12000e60 	and	w0, w19, #0xf
   84d78:	6b00029f 	cmp	w20, w0
   84d7c:	54ffff61 	b.ne	84d68 <_ZN7mailbox10write_readEjNS_7channelE+0x68>  // b.any
   84d80:	aa1503e0 	mov	x0, x21
   84d84:	97ffffa7 	bl	84c20 <_ZN5mutex6unlockEv>
   84d88:	121c6e60 	and	w0, w19, #0xfffffff0
   84d8c:	f94013f5 	ldr	x21, [sp, #32]
   84d90:	a94153f3 	ldp	x19, x20, [sp, #16]
   84d94:	a8c37bfd 	ldp	x29, x30, [sp], #48
   84d98:	d65f03c0 	ret
   84d9c:	d503201f 	nop

0000000000084da0 <_ZN7mailbox5flushEv>:
   84da0:	d2971000 	mov	x0, #0xb880                	// #47232
   84da4:	f2a7e000 	movk	x0, #0x3f00, lsl #16
   84da8:	b9401801 	ldr	w1, [x0, #24]
   84dac:	37f00081 	tbnz	w1, #30, 84dbc <_ZN7mailbox5flushEv+0x1c>
   84db0:	b9400001 	ldr	w1, [x0]
   84db4:	b9401801 	ldr	w1, [x0, #24]
   84db8:	36f7ffc1 	tbz	w1, #30, 84db0 <_ZN7mailbox5flushEv+0x10>
   84dbc:	d65f03c0 	ret

0000000000084dc0 <_ZN7mailbox4readENS_7channelE>:
   84dc0:	d2971002 	mov	x2, #0xb880                	// #47232
   84dc4:	f2a7e002 	movk	x2, #0x3f00, lsl #16
   84dc8:	b9401840 	ldr	w0, [x2, #24]
   84dcc:	37f7ffe0 	tbnz	w0, #30, 84dc8 <_ZN7mailbox4readENS_7channelE+0x8>
   84dd0:	b9400040 	ldr	w0, [x2]
   84dd4:	12000c03 	and	w3, w0, #0xf
   84dd8:	6b01007f 	cmp	w3, w1
   84ddc:	54ffff61 	b.ne	84dc8 <_ZN7mailbox4readENS_7channelE+0x8>  // b.any
   84de0:	121c6c00 	and	w0, w0, #0xfffffff0
   84de4:	d65f03c0 	ret
   84de8:	d503201f 	nop
   84dec:	d503201f 	nop

0000000000084df0 <_ZN7mailbox5writeEjNS_7channelE>:
   84df0:	d2971403 	mov	x3, #0xb8a0                	// #47264
   84df4:	f2a7e003 	movk	x3, #0x3f00, lsl #16
   84df8:	b9401860 	ldr	w0, [x3, #24]
   84dfc:	37ffffe0 	tbnz	w0, #31, 84df8 <_ZN7mailbox5writeEjNS_7channelE+0x8>
   84e00:	121c6c21 	and	w1, w1, #0xfffffff0
   84e04:	2a020022 	orr	w2, w1, w2
   84e08:	b9000062 	str	w2, [x3]
   84e0c:	d65f03c0 	ret

0000000000084e10 <_ZN12effect_delay7processEv>:
   84e10:	a9bc7bfd 	stp	x29, x30, [sp, #-64]!
   84e14:	910003fd 	mov	x29, sp
   84e18:	a90153f3 	stp	x19, x20, [sp, #16]
   84e1c:	aa0003f3 	mov	x19, x0
   84e20:	91022014 	add	x20, x0, #0x88
   84e24:	f9403000 	ldr	x0, [x0, #96]
   84e28:	6d0227e8 	stp	d8, d9, [sp, #32]
   84e2c:	6d032fea 	stp	d10, d11, [sp, #48]
   84e30:	94000140 	bl	85330 <_ZN5input9get_frameEv>
   84e34:	1e60400b 	fmov	d11, d0
   84e38:	f9403a60 	ldr	x0, [x19, #112]
   84e3c:	97fff705 	bl	82a50 <_ZN13analog_button9get_valueEv>
   84e40:	1e604009 	fmov	d9, d0
   84e44:	f9403e60 	ldr	x0, [x19, #120]
   84e48:	97fff702 	bl	82a50 <_ZN13analog_button9get_valueEv>
   84e4c:	1e60400a 	fmov	d10, d0
   84e50:	f9404260 	ldr	x0, [x19, #128]
   84e54:	97fff6ff 	bl	82a50 <_ZN13analog_button9get_valueEv>
   84e58:	1e790001 	fcvtzu	w1, d0
   84e5c:	aa1403e0 	mov	x0, x20
   84e60:	4b0103e1 	neg	w1, w1
   84e64:	94000987 	bl	87480 <_ZN12buffer_delay12get_previousEj>
   84e68:	1e6e1001 	fmov	d1, #1.000000000000000000e+00
   84e6c:	aa1403e0 	mov	x0, x20
   84e70:	1e6a3828 	fsub	d8, d1, d10
   84e74:	1e60094a 	fmul	d10, d10, d0
   84e78:	1e693821 	fsub	d1, d1, d9
   84e7c:	1e600920 	fmul	d0, d9, d0
   84e80:	1f4b2908 	fmadd	d8, d8, d11, d10
   84e84:	1f480020 	fmadd	d0, d1, d8, d0
   84e88:	94000986 	bl	874a0 <_ZN12buffer_delay14update_currentEd>
   84e8c:	1e604100 	fmov	d0, d8
   84e90:	6d4227e8 	ldp	d8, d9, [sp, #32]
   84e94:	6d432fea 	ldp	d10, d11, [sp, #48]
   84e98:	f9403660 	ldr	x0, [x19, #104]
   84e9c:	a94153f3 	ldp	x19, x20, [sp, #16]
   84ea0:	a8c47bfd 	ldp	x29, x30, [sp], #64
   84ea4:	140008db 	b	87210 <_ZN6output12update_frameEd>
   84ea8:	d503201f 	nop
   84eac:	d503201f 	nop

0000000000084eb0 <_ZN12effect_delayC1E9rectangle5color>:
   84eb0:	aa0203e3 	mov	x3, x2
   84eb4:	aa0103e4 	mov	x4, x1
   84eb8:	a9ba7bfd 	stp	x29, x30, [sp, #-96]!
   84ebc:	910003fd 	mov	x29, sp
   84ec0:	3940006a 	ldrb	w10, [x3]
   84ec4:	910143a1 	add	x1, x29, #0x50
   84ec8:	39400469 	ldrb	w9, [x3, #1]
   84ecc:	910123a2 	add	x2, x29, #0x48
   84ed0:	39400868 	ldrb	w8, [x3, #2]
   84ed4:	29401887 	ldp	w7, w6, [x4]
   84ed8:	390123aa 	strb	w10, [x29, #72]
   84edc:	29411085 	ldp	w5, w4, [x4, #8]
   84ee0:	390127a9 	strb	w9, [x29, #73]
   84ee4:	39400c63 	ldrb	w3, [x3, #3]
   84ee8:	39012ba8 	strb	w8, [x29, #74]
   84eec:	39012fa3 	strb	w3, [x29, #75]
   84ef0:	290a1ba7 	stp	w7, w6, [x29, #80]
   84ef4:	290b13a5 	stp	w5, w4, [x29, #88]
   84ef8:	a90153f3 	stp	x19, x20, [sp, #16]
   84efc:	aa0003f3 	mov	x19, x0
   84f00:	fd0013e8 	str	d8, [sp, #32]
   84f04:	94000237 	bl	857e0 <_ZN6effectC1E9rectangle5color>
   84f08:	910123a0 	add	x0, x29, #0x48
   84f0c:	97fff719 	bl	82b70 <_ZN5colorD1Ev>
   84f10:	910143a0 	add	x0, x29, #0x50
   84f14:	97fff053 	bl	81060 <_ZN9rectangleD1Ev>
   84f18:	aa1303e0 	mov	x0, x19
   84f1c:	b0000042 	adrp	x2, 8d000 <_ZN4font9monospaceE+0x5760>
   84f20:	9134a042 	add	x2, x2, #0xd28
   84f24:	5285dc01 	mov	w1, #0x2ee0                	// #12000
   84f28:	f8088402 	str	x2, [x0], #136
   84f2c:	94000949 	bl	87450 <_ZN12buffer_delayC1Ej>
   84f30:	5c000f08 	ldr	d8, 85110 <_ZN12effect_delayC1E9rectangle5color+0x260>
   84f34:	910123a2 	add	x2, x29, #0x48
   84f38:	5c000e80 	ldr	d0, 85108 <_ZN12effect_delayC1E9rectangle5color+0x258>
   84f3c:	910103a1 	add	x1, x29, #0x40
   84f40:	910143a0 	add	x0, x29, #0x50
   84f44:	6d0423a0 	stp	d0, d8, [x29, #64]
   84f48:	97fff03a 	bl	81030 <_ZN9rectangleC1E6vectorILj2EjES1_>
   84f4c:	12800004 	mov	w4, #0xffffffff            	// #-1
   84f50:	2a0403e1 	mov	w1, w4
   84f54:	52800003 	mov	w3, #0x0                   	// #0
   84f58:	52800002 	mov	w2, #0x0                   	// #0
   84f5c:	9100e3a0 	add	x0, x29, #0x38
   84f60:	97fff6fc 	bl	82b50 <_ZN5colorC1Ehhhh>
   84f64:	d2800700 	mov	x0, #0x38                  	// #56
   84f68:	97fff22a 	bl	81810 <_Znwm>
   84f6c:	9100e3a2 	add	x2, x29, #0x38
   84f70:	910143a1 	add	x1, x29, #0x50
   84f74:	aa0003f4 	mov	x20, x0
   84f78:	940000ca 	bl	852a0 <_ZN5inputC1E9rectangle5color>
   84f7c:	f9003274 	str	x20, [x19, #96]
   84f80:	9100e3a0 	add	x0, x29, #0x38
   84f84:	97fff6fb 	bl	82b70 <_ZN5colorD1Ev>
   84f88:	910143a0 	add	x0, x29, #0x50
   84f8c:	97fff035 	bl	81060 <_ZN9rectangleD1Ev>
   84f90:	5c000c40 	ldr	d0, 85118 <_ZN12effect_delayC1E9rectangle5color+0x268>
   84f94:	910123a2 	add	x2, x29, #0x48
   84f98:	910103a1 	add	x1, x29, #0x40
   84f9c:	910143a0 	add	x0, x29, #0x50
   84fa0:	6d0423a0 	stp	d0, d8, [x29, #64]
   84fa4:	97fff023 	bl	81030 <_ZN9rectangleC1E6vectorILj2EjES1_>
   84fa8:	12800004 	mov	w4, #0xffffffff            	// #-1
   84fac:	2a0403e2 	mov	w2, w4
   84fb0:	52800003 	mov	w3, #0x0                   	// #0
   84fb4:	52800001 	mov	w1, #0x0                   	// #0
   84fb8:	9100e3a0 	add	x0, x29, #0x38
   84fbc:	97fff6e5 	bl	82b50 <_ZN5colorC1Ehhhh>
   84fc0:	d2800800 	mov	x0, #0x40                  	// #64
   84fc4:	97fff213 	bl	81810 <_Znwm>
   84fc8:	9100e3a2 	add	x2, x29, #0x38
   84fcc:	910143a1 	add	x1, x29, #0x50
   84fd0:	aa0003f4 	mov	x20, x0
   84fd4:	9400086b 	bl	87180 <_ZN6outputC1E9rectangle5color>
   84fd8:	f9003674 	str	x20, [x19, #104]
   84fdc:	9100e3a0 	add	x0, x29, #0x38
   84fe0:	97fff6e4 	bl	82b70 <_ZN5colorD1Ev>
   84fe4:	910143a0 	add	x0, x29, #0x50
   84fe8:	97fff01e 	bl	81060 <_ZN9rectangleD1Ev>
   84fec:	0f020600 	movi	v0.2s, #0x50
   84ff0:	910123a2 	add	x2, x29, #0x48
   84ff4:	910103a1 	add	x1, x29, #0x40
   84ff8:	910143a0 	add	x0, x29, #0x50
   84ffc:	6d0423a0 	stp	d0, d8, [x29, #64]
   85000:	97fff00c 	bl	81030 <_ZN9rectangleC1E6vectorILj2EjES1_>
   85004:	12800004 	mov	w4, #0xffffffff            	// #-1
   85008:	2a0403e3 	mov	w3, w4
   8500c:	52800002 	mov	w2, #0x0                   	// #0
   85010:	52800001 	mov	w1, #0x0                   	// #0
   85014:	9100e3a0 	add	x0, x29, #0x38
   85018:	97fff6ce 	bl	82b50 <_ZN5colorC1Ehhhh>
   8501c:	d2800700 	mov	x0, #0x38                  	// #56
   85020:	97fff1fc 	bl	81810 <_Znwm>
   85024:	9100e3a2 	add	x2, x29, #0x38
   85028:	910143a1 	add	x1, x29, #0x50
   8502c:	aa0003f4 	mov	x20, x0
   85030:	97fff668 	bl	829d0 <_ZN13analog_buttonC1E9rectangle5color>
   85034:	f9003a74 	str	x20, [x19, #112]
   85038:	9100e3a0 	add	x0, x29, #0x38
   8503c:	97fff6cd 	bl	82b70 <_ZN5colorD1Ev>
   85040:	910143a0 	add	x0, x29, #0x50
   85044:	97fff007 	bl	81060 <_ZN9rectangleD1Ev>
   85048:	5c0006c0 	ldr	d0, 85120 <_ZN12effect_delayC1E9rectangle5color+0x270>
   8504c:	910123a2 	add	x2, x29, #0x48
   85050:	910103a1 	add	x1, x29, #0x40
   85054:	910143a0 	add	x0, x29, #0x50
   85058:	6d0423a0 	stp	d0, d8, [x29, #64]
   8505c:	97ffeff5 	bl	81030 <_ZN9rectangleC1E6vectorILj2EjES1_>
   85060:	12800004 	mov	w4, #0xffffffff            	// #-1
   85064:	2a0403e3 	mov	w3, w4
   85068:	52800002 	mov	w2, #0x0                   	// #0
   8506c:	52800001 	mov	w1, #0x0                   	// #0
   85070:	9100e3a0 	add	x0, x29, #0x38
   85074:	97fff6b7 	bl	82b50 <_ZN5colorC1Ehhhh>
   85078:	d2800700 	mov	x0, #0x38                  	// #56
   8507c:	97fff1e5 	bl	81810 <_Znwm>
   85080:	9100e3a2 	add	x2, x29, #0x38
   85084:	910143a1 	add	x1, x29, #0x50
   85088:	aa0003f4 	mov	x20, x0
   8508c:	97fff651 	bl	829d0 <_ZN13analog_buttonC1E9rectangle5color>
   85090:	f9004274 	str	x20, [x19, #128]
   85094:	9100e3a0 	add	x0, x29, #0x38
   85098:	97fff6b6 	bl	82b70 <_ZN5colorD1Ev>
   8509c:	910143a0 	add	x0, x29, #0x50
   850a0:	97ffeff0 	bl	81060 <_ZN9rectangleD1Ev>
   850a4:	f9403261 	ldr	x1, [x19, #96]
   850a8:	aa1303e0 	mov	x0, x19
   850ac:	94000281 	bl	85ab0 <_ZN6effect9add_inputEP5input>
   850b0:	f9403661 	ldr	x1, [x19, #104]
   850b4:	aa1303e0 	mov	x0, x19
   850b8:	940002a2 	bl	85b40 <_ZN6effect10add_outputEP6output>
   850bc:	f9403a61 	ldr	x1, [x19, #112]
   850c0:	aa1303e0 	mov	x0, x19
   850c4:	94000257 	bl	85a20 <_ZN6effect10add_buttonEP6button>
   850c8:	f9404261 	ldr	x1, [x19, #128]
   850cc:	aa1303e0 	mov	x0, x19
   850d0:	94000254 	bl	85a20 <_ZN6effect10add_buttonEP6button>
   850d4:	2f00e400 	movi	d0, #0x0
   850d8:	f9403a60 	ldr	x0, [x19, #112]
   850dc:	97fff661 	bl	82a60 <_ZN13analog_button9set_valueEd>
   850e0:	f9403e60 	ldr	x0, [x19, #120]
   850e4:	1e6c1000 	fmov	d0, #5.000000000000000000e-01
   850e8:	97fff65e 	bl	82a60 <_ZN13analog_button9set_valueEd>
   850ec:	f9404260 	ldr	x0, [x19, #128]
   850f0:	1e6e1000 	fmov	d0, #1.000000000000000000e+00
   850f4:	97fff65b 	bl	82a60 <_ZN13analog_button9set_valueEd>
   850f8:	a94153f3 	ldp	x19, x20, [sp, #16]
   850fc:	fd4013e8 	ldr	d8, [sp, #32]
   85100:	a8c67bfd 	ldp	x29, x30, [sp], #96
   85104:	d65f03c0 	ret
   85108:	00000000 	.word	0x00000000
   8510c:	00000078 	.word	0x00000078
   85110:	0000001e 	.word	0x0000001e
   85114:	00000028 	.word	0x00000028
   85118:	000000aa 	.word	0x000000aa
   8511c:	00000078 	.word	0x00000078
   85120:	00000050 	.word	0x00000050
   85124:	00000082 	.word	0x00000082
   85128:	d503201f 	nop
   8512c:	d503201f 	nop

0000000000085130 <_ZN12effect_delayD1Ev>:
   85130:	a9be7bfd 	stp	x29, x30, [sp, #-32]!
   85134:	90000041 	adrp	x1, 8d000 <_ZN4font9monospaceE+0x5760>
   85138:	9134a021 	add	x1, x1, #0xd28
   8513c:	910003fd 	mov	x29, sp
   85140:	f9000bf3 	str	x19, [sp, #16]
   85144:	aa0003f3 	mov	x19, x0
   85148:	f9403000 	ldr	x0, [x0, #96]
   8514c:	f9000261 	str	x1, [x19]
   85150:	b4000080 	cbz	x0, 85160 <_ZN12effect_delayD1Ev+0x30>
   85154:	f9400001 	ldr	x1, [x0]
   85158:	f9400421 	ldr	x1, [x1, #8]
   8515c:	d63f0020 	blr	x1
   85160:	f9403660 	ldr	x0, [x19, #104]
   85164:	b4000080 	cbz	x0, 85174 <_ZN12effect_delayD1Ev+0x44>
   85168:	f9400001 	ldr	x1, [x0]
   8516c:	f9400421 	ldr	x1, [x1, #8]
   85170:	d63f0020 	blr	x1
   85174:	f9403a60 	ldr	x0, [x19, #112]
   85178:	b4000080 	cbz	x0, 85188 <_ZN12effect_delayD1Ev+0x58>
   8517c:	f9400001 	ldr	x1, [x0]
   85180:	f9400421 	ldr	x1, [x1, #8]
   85184:	d63f0020 	blr	x1
   85188:	f9404260 	ldr	x0, [x19, #128]
   8518c:	b4000080 	cbz	x0, 8519c <_ZN12effect_delayD1Ev+0x6c>
   85190:	f9400001 	ldr	x1, [x0]
   85194:	f9400421 	ldr	x1, [x1, #8]
   85198:	d63f0020 	blr	x1
   8519c:	91022260 	add	x0, x19, #0x88
   851a0:	94000898 	bl	87400 <_ZN12buffer_delayD1Ev>
   851a4:	aa1303e0 	mov	x0, x19
   851a8:	f9400bf3 	ldr	x19, [sp, #16]
   851ac:	a8c27bfd 	ldp	x29, x30, [sp], #32
   851b0:	140001b0 	b	85870 <_ZN6effectD1Ev>
   851b4:	d503201f 	nop
   851b8:	d503201f 	nop
   851bc:	d503201f 	nop

00000000000851c0 <_ZN12effect_delayD0Ev>:
   851c0:	a9be7bfd 	stp	x29, x30, [sp, #-32]!
   851c4:	90000041 	adrp	x1, 8d000 <_ZN4font9monospaceE+0x5760>
   851c8:	9134a021 	add	x1, x1, #0xd28
   851cc:	910003fd 	mov	x29, sp
   851d0:	f9000bf3 	str	x19, [sp, #16]
   851d4:	aa0003f3 	mov	x19, x0
   851d8:	f9403000 	ldr	x0, [x0, #96]
   851dc:	f9000261 	str	x1, [x19]
   851e0:	b4000080 	cbz	x0, 851f0 <_ZN12effect_delayD0Ev+0x30>
   851e4:	f9400001 	ldr	x1, [x0]
   851e8:	f9400421 	ldr	x1, [x1, #8]
   851ec:	d63f0020 	blr	x1
   851f0:	f9403660 	ldr	x0, [x19, #104]
   851f4:	b4000080 	cbz	x0, 85204 <_ZN12effect_delayD0Ev+0x44>
   851f8:	f9400001 	ldr	x1, [x0]
   851fc:	f9400421 	ldr	x1, [x1, #8]
   85200:	d63f0020 	blr	x1
   85204:	f9403a60 	ldr	x0, [x19, #112]
   85208:	b4000080 	cbz	x0, 85218 <_ZN12effect_delayD0Ev+0x58>
   8520c:	f9400001 	ldr	x1, [x0]
   85210:	f9400421 	ldr	x1, [x1, #8]
   85214:	d63f0020 	blr	x1
   85218:	f9404260 	ldr	x0, [x19, #128]
   8521c:	b4000080 	cbz	x0, 8522c <_ZN12effect_delayD0Ev+0x6c>
   85220:	f9400001 	ldr	x1, [x0]
   85224:	f9400421 	ldr	x1, [x1, #8]
   85228:	d63f0020 	blr	x1
   8522c:	91022260 	add	x0, x19, #0x88
   85230:	94000874 	bl	87400 <_ZN12buffer_delayD1Ev>
   85234:	aa1303e0 	mov	x0, x19
   85238:	9400018e 	bl	85870 <_ZN6effectD1Ev>
   8523c:	aa1303e0 	mov	x0, x19
   85240:	f9400bf3 	ldr	x19, [sp, #16]
   85244:	a8c27bfd 	ldp	x29, x30, [sp], #32
   85248:	d2801501 	mov	x1, #0xa8                  	// #168
   8524c:	17fff181 	b	81850 <_ZdlPvm>

0000000000085250 <_ZN5inputD1Ev>:
   85250:	90000041 	adrp	x1, 8d000 <_ZN4font9monospaceE+0x5760>
   85254:	91356021 	add	x1, x1, #0xd58
   85258:	f9000001 	str	x1, [x0]
   8525c:	17fff6dd 	b	82dd0 <_ZN14graphic_objectD1Ev>

0000000000085260 <_ZN5inputD0Ev>:
   85260:	a9be7bfd 	stp	x29, x30, [sp, #-32]!
   85264:	90000041 	adrp	x1, 8d000 <_ZN4font9monospaceE+0x5760>
   85268:	91356021 	add	x1, x1, #0xd58
   8526c:	910003fd 	mov	x29, sp
   85270:	f9000bf3 	str	x19, [sp, #16]
   85274:	aa0003f3 	mov	x19, x0
   85278:	f9000001 	str	x1, [x0]
   8527c:	97fff6d5 	bl	82dd0 <_ZN14graphic_objectD1Ev>
   85280:	aa1303e0 	mov	x0, x19
   85284:	f9400bf3 	ldr	x19, [sp, #16]
   85288:	a8c27bfd 	ldp	x29, x30, [sp], #32
   8528c:	d2800701 	mov	x1, #0x38                  	// #56
   85290:	17fff170 	b	81850 <_ZdlPvm>
   85294:	d503201f 	nop
   85298:	d503201f 	nop
   8529c:	d503201f 	nop

00000000000852a0 <_ZN5inputC1E9rectangle5color>:
   852a0:	aa0203e3 	mov	x3, x2
   852a4:	aa0103e4 	mov	x4, x1
   852a8:	a9bc7bfd 	stp	x29, x30, [sp, #-64]!
   852ac:	910003fd 	mov	x29, sp
   852b0:	3940006a 	ldrb	w10, [x3]
   852b4:	9100a3a2 	add	x2, x29, #0x28
   852b8:	39400469 	ldrb	w9, [x3, #1]
   852bc:	9100c3a1 	add	x1, x29, #0x30
   852c0:	39400868 	ldrb	w8, [x3, #2]
   852c4:	29401887 	ldp	w7, w6, [x4]
   852c8:	3900a3aa 	strb	w10, [x29, #40]
   852cc:	39400c63 	ldrb	w3, [x3, #3]
   852d0:	29411085 	ldp	w5, w4, [x4, #8]
   852d4:	3900a7a9 	strb	w9, [x29, #41]
   852d8:	f9000bf3 	str	x19, [sp, #16]
   852dc:	aa0003f3 	mov	x19, x0
   852e0:	3900aba8 	strb	w8, [x29, #42]
   852e4:	3900afa3 	strb	w3, [x29, #43]
   852e8:	29061ba7 	stp	w7, w6, [x29, #48]
   852ec:	290713a5 	stp	w5, w4, [x29, #56]
   852f0:	97fff654 	bl	82c40 <_ZN14graphic_objectC1E9rectangle5color>
   852f4:	9100a3a0 	add	x0, x29, #0x28
   852f8:	97fff61e 	bl	82b70 <_ZN5colorD1Ev>
   852fc:	9100c3a0 	add	x0, x29, #0x30
   85300:	97ffef58 	bl	81060 <_ZN9rectangleD1Ev>
   85304:	90000040 	adrp	x0, 8d000 <_ZN4font9monospaceE+0x5760>
   85308:	91356000 	add	x0, x0, #0xd58
   8530c:	f9000260 	str	x0, [x19]
   85310:	f9001a7f 	str	xzr, [x19, #48]
   85314:	f9400bf3 	ldr	x19, [sp, #16]
   85318:	a8c47bfd 	ldp	x29, x30, [sp], #64
   8531c:	d65f03c0 	ret

0000000000085320 <_ZN5input14connect_outputEP6output>:
   85320:	f9001801 	str	x1, [x0, #48]
   85324:	d65f03c0 	ret
   85328:	d503201f 	nop
   8532c:	d503201f 	nop

0000000000085330 <_ZN5input9get_frameEv>:
   85330:	f9401800 	ldr	x0, [x0, #48]
   85334:	b4000040 	cbz	x0, 8533c <_ZN5input9get_frameEv+0xc>
   85338:	140007b2 	b	87200 <_ZN6output9get_frameEv>
   8533c:	2f00e400 	movi	d0, #0x0
   85340:	d65f03c0 	ret
   85344:	d503201f 	nop
   85348:	d503201f 	nop
   8534c:	d503201f 	nop

0000000000085350 <_ZN5input11frame_readyEv>:
   85350:	f9401800 	ldr	x0, [x0, #48]
   85354:	b4000040 	cbz	x0, 8535c <_ZN5input11frame_readyEv+0xc>
   85358:	140007b6 	b	87230 <_ZN6output11frame_readyEv>
   8535c:	52800020 	mov	w0, #0x1                   	// #1
   85360:	d65f03c0 	ret
   85364:	d503201f 	nop
   85368:	d503201f 	nop
   8536c:	d503201f 	nop

0000000000085370 <_ZN5input15draw_connectionEv>:
   85370:	f9401801 	ldr	x1, [x0, #48]
   85374:	b4000681 	cbz	x1, 85444 <_ZN5input15draw_connectionEv+0xd4>
   85378:	a9b97bfd 	stp	x29, x30, [sp, #-112]!
   8537c:	910003fd 	mov	x29, sp
   85380:	a90153f3 	stp	x19, x20, [sp, #16]
   85384:	aa0003f3 	mov	x19, x0
   85388:	a9025bf5 	stp	x21, x22, [sp, #32]
   8538c:	aa0103e0 	mov	x0, x1
   85390:	9100c3a8 	add	x8, x29, #0x30
   85394:	97fff66f 	bl	82d50 <_ZN14graphic_object13get_footprintEv>
   85398:	f9401a60 	ldr	x0, [x19, #48]
   8539c:	910103a8 	add	x8, x29, #0x40
   853a0:	b94033b5 	ldr	w21, [x29, #48]
   853a4:	97fff66b 	bl	82d50 <_ZN14graphic_object13get_footprintEv>
   853a8:	b9404ba1 	ldr	w1, [x29, #72]
   853ac:	910143a8 	add	x8, x29, #0x50
   853b0:	f9401a60 	ldr	x0, [x19, #48]
   853b4:	0b0102b5 	add	w21, w21, w1
   853b8:	97fff666 	bl	82d50 <_ZN14graphic_object13get_footprintEv>
   853bc:	b94057b6 	ldr	w22, [x29, #84]
   853c0:	f9401a60 	ldr	x0, [x19, #48]
   853c4:	910183a8 	add	x8, x29, #0x60
   853c8:	97fff662 	bl	82d50 <_ZN14graphic_object13get_footprintEv>
   853cc:	b9406fb4 	ldr	w20, [x29, #108]
   853d0:	910183a0 	add	x0, x29, #0x60
   853d4:	97ffef23 	bl	81060 <_ZN9rectangleD1Ev>
   853d8:	910143a0 	add	x0, x29, #0x50
   853dc:	97ffef21 	bl	81060 <_ZN9rectangleD1Ev>
   853e0:	910103a0 	add	x0, x29, #0x40
   853e4:	97ffef1f 	bl	81060 <_ZN9rectangleD1Ev>
   853e8:	9100c3a0 	add	x0, x29, #0x30
   853ec:	97ffef1d 	bl	81060 <_ZN9rectangleD1Ev>
   853f0:	29410e62 	ldp	w2, w3, [x19, #8]
   853f4:	910103a8 	add	x8, x29, #0x40
   853f8:	b9401661 	ldr	w1, [x19, #20]
   853fc:	0b5406d4 	add	w20, w22, w20, lsr #1
   85400:	f9401a60 	ldr	x0, [x19, #48]
   85404:	f9401276 	ldr	x22, [x19, #32]
   85408:	0b410461 	add	w1, w3, w1, lsr #1
   8540c:	290a53b5 	stp	w21, w20, [x29, #80]
   85410:	290c07a2 	stp	w2, w1, [x29, #96]
   85414:	97fff663 	bl	82da0 <_ZN14graphic_object9get_colorEv>
   85418:	910103a3 	add	x3, x29, #0x40
   8541c:	910183a2 	add	x2, x29, #0x60
   85420:	910143a1 	add	x1, x29, #0x50
   85424:	aa1603e0 	mov	x0, x22
   85428:	97fff19e 	bl	81aa0 <_ZN6screen9draw_lineE6vectorILj2EjES1_5color>
   8542c:	910103a0 	add	x0, x29, #0x40
   85430:	97fff5d0 	bl	82b70 <_ZN5colorD1Ev>
   85434:	a94153f3 	ldp	x19, x20, [sp, #16]
   85438:	a9425bf5 	ldp	x21, x22, [sp, #32]
   8543c:	a8c77bfd 	ldp	x29, x30, [sp], #112
   85440:	d65f03c0 	ret
   85444:	d65f03c0 	ret
	...

0000000000085450 <_ZN12effect_graphC1EP6screen>:
   85450:	a9007c01 	stp	x1, xzr, [x0]
   85454:	f900081f 	str	xzr, [x0, #16]
   85458:	d65f03c0 	ret
   8545c:	d503201f 	nop

0000000000085460 <_ZN12effect_graphD1Ev>:
   85460:	a9be7bfd 	stp	x29, x30, [sp, #-32]!
   85464:	910003fd 	mov	x29, sp
   85468:	f9000bf3 	str	x19, [sp, #16]
   8546c:	aa0003f3 	mov	x19, x0
   85470:	f9400400 	ldr	x0, [x0, #8]
   85474:	b4000140 	cbz	x0, 8549c <_ZN12effect_graphD1Ev+0x3c>
   85478:	f9400a64 	ldr	x4, [x19, #16]
   8547c:	d2800301 	mov	x1, #0x18                  	// #24
   85480:	f9400482 	ldr	x2, [x4, #8]
   85484:	b4000122 	cbz	x2, 854a8 <_ZN12effect_graphD1Ev+0x48>
   85488:	f900085f 	str	xzr, [x2, #16]
   8548c:	f9000a62 	str	x2, [x19, #16]
   85490:	97fff0f0 	bl	81850 <_ZdlPvm>
   85494:	f9400660 	ldr	x0, [x19, #8]
   85498:	b5ffff00 	cbnz	x0, 85478 <_ZN12effect_graphD1Ev+0x18>
   8549c:	f9400bf3 	ldr	x19, [sp, #16]
   854a0:	a8c27bfd 	ldp	x29, x30, [sp], #32
   854a4:	d65f03c0 	ret
   854a8:	f9400bf3 	ldr	x19, [sp, #16]
   854ac:	d2800301 	mov	x1, #0x18                  	// #24
   854b0:	a8c27bfd 	ldp	x29, x30, [sp], #32
   854b4:	aa0403e0 	mov	x0, x4
   854b8:	17fff0e6 	b	81850 <_ZdlPvm>
   854bc:	d503201f 	nop

00000000000854c0 <_ZN12effect_graph6updateEv>:
   854c0:	a9be7bfd 	stp	x29, x30, [sp, #-32]!
   854c4:	910003fd 	mov	x29, sp
   854c8:	f9000bf3 	str	x19, [sp, #16]
   854cc:	f9400413 	ldr	x19, [x0, #8]
   854d0:	b40000d3 	cbz	x19, 854e8 <_ZN12effect_graph6updateEv+0x28>
   854d4:	d503201f 	nop
   854d8:	f9400260 	ldr	x0, [x19]
   854dc:	940001bd 	bl	85bd0 <_ZN6effect6updateEv>
   854e0:	f9400a73 	ldr	x19, [x19, #16]
   854e4:	b5ffffb3 	cbnz	x19, 854d8 <_ZN12effect_graph6updateEv+0x18>
   854e8:	f9400bf3 	ldr	x19, [sp, #16]
   854ec:	a8c27bfd 	ldp	x29, x30, [sp], #32
   854f0:	d65f03c0 	ret
   854f4:	d503201f 	nop
   854f8:	d503201f 	nop
   854fc:	d503201f 	nop

0000000000085500 <_ZN12effect_graph4drawEv>:
   85500:	a9bd7bfd 	stp	x29, x30, [sp, #-48]!
   85504:	12800004 	mov	w4, #0xffffffff            	// #-1
   85508:	52800fa3 	mov	w3, #0x7d                  	// #125
   8550c:	52800282 	mov	w2, #0x14                  	// #20
   85510:	910003fd 	mov	x29, sp
   85514:	a90153f3 	stp	x19, x20, [sp, #16]
   85518:	52800141 	mov	w1, #0xa                   	// #10
   8551c:	f9400013 	ldr	x19, [x0]
   85520:	aa0003f4 	mov	x20, x0
   85524:	9100a3a0 	add	x0, x29, #0x28
   85528:	97fff58a 	bl	82b50 <_ZN5colorC1Ehhhh>
   8552c:	9100a3a1 	add	x1, x29, #0x28
   85530:	aa1303e0 	mov	x0, x19
   85534:	97fff127 	bl	819d0 <_ZN6screen5clearE5color>
   85538:	9100a3a0 	add	x0, x29, #0x28
   8553c:	97fff58d 	bl	82b70 <_ZN5colorD1Ev>
   85540:	f9400693 	ldr	x19, [x20, #8]
   85544:	b4000173 	cbz	x19, 85570 <_ZN12effect_graph4drawEv+0x70>
   85548:	f9400260 	ldr	x0, [x19]
   8554c:	940001b9 	bl	85c30 <_ZN6effect4drawEv>
   85550:	f9400a73 	ldr	x19, [x19, #16]
   85554:	b5ffffb3 	cbnz	x19, 85548 <_ZN12effect_graph4drawEv+0x48>
   85558:	f9400693 	ldr	x19, [x20, #8]
   8555c:	b40000b3 	cbz	x19, 85570 <_ZN12effect_graph4drawEv+0x70>
   85560:	f9400260 	ldr	x0, [x19]
   85564:	940001cf 	bl	85ca0 <_ZN6effect16draw_connectionsEv>
   85568:	f9400a73 	ldr	x19, [x19, #16]
   8556c:	b5ffffb3 	cbnz	x19, 85560 <_ZN12effect_graph4drawEv+0x60>
   85570:	a94153f3 	ldp	x19, x20, [sp, #16]
   85574:	a8c37bfd 	ldp	x29, x30, [sp], #48
   85578:	d65f03c0 	ret
   8557c:	d503201f 	nop

0000000000085580 <_ZN12effect_graph10add_effectEP6effect>:
   85580:	a9bd7bfd 	stp	x29, x30, [sp, #-48]!
   85584:	910003fd 	mov	x29, sp
   85588:	a90153f3 	stp	x19, x20, [sp, #16]
   8558c:	aa0003f3 	mov	x19, x0
   85590:	f90013f5 	str	x21, [sp, #32]
   85594:	aa0003f5 	mov	x21, x0
   85598:	f9400000 	ldr	x0, [x0]
   8559c:	aa0103f4 	mov	x20, x1
   855a0:	97fff108 	bl	819c0 <_ZN6screen13get_footprintEv>
   855a4:	aa0003e1 	mov	x1, x0
   855a8:	aa1403e0 	mov	x0, x20
   855ac:	97fff5cd 	bl	82ce0 <_ZN14graphic_object14set_boundariesEP9rectangle>
   855b0:	f8408661 	ldr	x1, [x19], #8
   855b4:	aa1403e0 	mov	x0, x20
   855b8:	940000f6 	bl	85990 <_ZN6effect14set_own_screenEP6screen>
   855bc:	f9400660 	ldr	x0, [x19, #8]
   855c0:	b4000180 	cbz	x0, 855f0 <_ZN12effect_graph10add_effectEP6effect+0x70>
   855c4:	d2800300 	mov	x0, #0x18                  	// #24
   855c8:	97fff092 	bl	81810 <_Znwm>
   855cc:	f9400661 	ldr	x1, [x19, #8]
   855d0:	a9000414 	stp	x20, x1, [x0]
   855d4:	f900081f 	str	xzr, [x0, #16]
   855d8:	f9000820 	str	x0, [x1, #16]
   855dc:	f9000660 	str	x0, [x19, #8]
   855e0:	a94153f3 	ldp	x19, x20, [sp, #16]
   855e4:	f94013f5 	ldr	x21, [sp, #32]
   855e8:	a8c37bfd 	ldp	x29, x30, [sp], #48
   855ec:	d65f03c0 	ret
   855f0:	d2800300 	mov	x0, #0x18                  	// #24
   855f4:	97fff087 	bl	81810 <_Znwm>
   855f8:	f90006a0 	str	x0, [x21, #8]
   855fc:	a9007c14 	stp	x20, xzr, [x0]
   85600:	f9000660 	str	x0, [x19, #8]
   85604:	f900081f 	str	xzr, [x0, #16]
   85608:	a94153f3 	ldp	x19, x20, [sp, #16]
   8560c:	f94013f5 	ldr	x21, [sp, #32]
   85610:	a8c37bfd 	ldp	x29, x30, [sp], #48
   85614:	d65f03c0 	ret
   85618:	d503201f 	nop
   8561c:	d503201f 	nop

0000000000085620 <_ZN12effect_graph13select_effectE6vectorILj2EjE>:
   85620:	a9bd7bfd 	stp	x29, x30, [sp, #-48]!
   85624:	910003fd 	mov	x29, sp
   85628:	f9000bf3 	str	x19, [sp, #16]
   8562c:	f9400413 	ldr	x19, [x0, #8]
   85630:	b4000233 	cbz	x19, 85674 <_ZN12effect_graph13select_effectE6vectorILj2EjE+0x54>
   85634:	f9000fb4 	str	x20, [x29, #24]
   85638:	aa0103f4 	mov	x20, x1
   8563c:	14000003 	b	85648 <_ZN12effect_graph13select_effectE6vectorILj2EjE+0x28>
   85640:	f9400a73 	ldr	x19, [x19, #16]
   85644:	b4000173 	cbz	x19, 85670 <_ZN12effect_graph13select_effectE6vectorILj2EjE+0x50>
   85648:	29400682 	ldp	w2, w1, [x20]
   8564c:	f9400260 	ldr	x0, [x19]
   85650:	290507a2 	stp	w2, w1, [x29, #40]
   85654:	9100a3a1 	add	x1, x29, #0x28
   85658:	97fff652 	bl	82fa0 <_ZN14graphic_object11is_selectedE6vectorILj2EjE>
   8565c:	b4ffff20 	cbz	x0, 85640 <_ZN12effect_graph13select_effectE6vectorILj2EjE+0x20>
   85660:	f9400fb4 	ldr	x20, [x29, #24]
   85664:	f9400bf3 	ldr	x19, [sp, #16]
   85668:	a8c37bfd 	ldp	x29, x30, [sp], #48
   8566c:	d65f03c0 	ret
   85670:	f9400fb4 	ldr	x20, [x29, #24]
   85674:	f9400bf3 	ldr	x19, [sp, #16]
   85678:	d2800000 	mov	x0, #0x0                   	// #0
   8567c:	a8c37bfd 	ldp	x29, x30, [sp], #48
   85680:	d65f03c0 	ret
   85684:	d503201f 	nop
   85688:	d503201f 	nop
   8568c:	d503201f 	nop

0000000000085690 <_ZN12effect_graph13select_buttonE6vectorILj2EjE>:
   85690:	a9bd7bfd 	stp	x29, x30, [sp, #-48]!
   85694:	910003fd 	mov	x29, sp
   85698:	f9000bf3 	str	x19, [sp, #16]
   8569c:	f9400413 	ldr	x19, [x0, #8]
   856a0:	b4000233 	cbz	x19, 856e4 <_ZN12effect_graph13select_buttonE6vectorILj2EjE+0x54>
   856a4:	f9000fb4 	str	x20, [x29, #24]
   856a8:	aa0103f4 	mov	x20, x1
   856ac:	14000003 	b	856b8 <_ZN12effect_graph13select_buttonE6vectorILj2EjE+0x28>
   856b0:	f9400a73 	ldr	x19, [x19, #16]
   856b4:	b4000173 	cbz	x19, 856e0 <_ZN12effect_graph13select_buttonE6vectorILj2EjE+0x50>
   856b8:	29400682 	ldp	w2, w1, [x20]
   856bc:	f9400260 	ldr	x0, [x19]
   856c0:	290507a2 	stp	w2, w1, [x29, #40]
   856c4:	9100a3a1 	add	x1, x29, #0x28
   856c8:	94000186 	bl	85ce0 <_ZN6effect13select_buttonE6vectorILj2EjE>
   856cc:	b4ffff20 	cbz	x0, 856b0 <_ZN12effect_graph13select_buttonE6vectorILj2EjE+0x20>
   856d0:	f9400fb4 	ldr	x20, [x29, #24]
   856d4:	f9400bf3 	ldr	x19, [sp, #16]
   856d8:	a8c37bfd 	ldp	x29, x30, [sp], #48
   856dc:	d65f03c0 	ret
   856e0:	f9400fb4 	ldr	x20, [x29, #24]
   856e4:	f9400bf3 	ldr	x19, [sp, #16]
   856e8:	d2800000 	mov	x0, #0x0                   	// #0
   856ec:	a8c37bfd 	ldp	x29, x30, [sp], #48
   856f0:	d65f03c0 	ret
   856f4:	d503201f 	nop
   856f8:	d503201f 	nop
   856fc:	d503201f 	nop

0000000000085700 <_ZN12effect_graph13select_outputE6vectorILj2EjE>:
   85700:	a9bd7bfd 	stp	x29, x30, [sp, #-48]!
   85704:	910003fd 	mov	x29, sp
   85708:	f9000bf3 	str	x19, [sp, #16]
   8570c:	f9400413 	ldr	x19, [x0, #8]
   85710:	b4000233 	cbz	x19, 85754 <_ZN12effect_graph13select_outputE6vectorILj2EjE+0x54>
   85714:	f9000fb4 	str	x20, [x29, #24]
   85718:	aa0103f4 	mov	x20, x1
   8571c:	14000003 	b	85728 <_ZN12effect_graph13select_outputE6vectorILj2EjE+0x28>
   85720:	f9400a73 	ldr	x19, [x19, #16]
   85724:	b4000173 	cbz	x19, 85750 <_ZN12effect_graph13select_outputE6vectorILj2EjE+0x50>
   85728:	29400682 	ldp	w2, w1, [x20]
   8572c:	f9400260 	ldr	x0, [x19]
   85730:	290507a2 	stp	w2, w1, [x29, #40]
   85734:	9100a3a1 	add	x1, x29, #0x28
   85738:	940001a2 	bl	85dc0 <_ZN6effect13select_outputE6vectorILj2EjE>
   8573c:	b4ffff20 	cbz	x0, 85720 <_ZN12effect_graph13select_outputE6vectorILj2EjE+0x20>
   85740:	f9400fb4 	ldr	x20, [x29, #24]
   85744:	f9400bf3 	ldr	x19, [sp, #16]
   85748:	a8c37bfd 	ldp	x29, x30, [sp], #48
   8574c:	d65f03c0 	ret
   85750:	f9400fb4 	ldr	x20, [x29, #24]
   85754:	f9400bf3 	ldr	x19, [sp, #16]
   85758:	d2800000 	mov	x0, #0x0                   	// #0
   8575c:	a8c37bfd 	ldp	x29, x30, [sp], #48
   85760:	d65f03c0 	ret
   85764:	d503201f 	nop
   85768:	d503201f 	nop
   8576c:	d503201f 	nop

0000000000085770 <_ZN12effect_graph12select_inputE6vectorILj2EjE>:
   85770:	a9bd7bfd 	stp	x29, x30, [sp, #-48]!
   85774:	910003fd 	mov	x29, sp
   85778:	f9000bf3 	str	x19, [sp, #16]
   8577c:	f9400413 	ldr	x19, [x0, #8]
   85780:	b4000233 	cbz	x19, 857c4 <_ZN12effect_graph12select_inputE6vectorILj2EjE+0x54>
   85784:	f9000fb4 	str	x20, [x29, #24]
   85788:	aa0103f4 	mov	x20, x1
   8578c:	14000003 	b	85798 <_ZN12effect_graph12select_inputE6vectorILj2EjE+0x28>
   85790:	f9400a73 	ldr	x19, [x19, #16]
   85794:	b4000173 	cbz	x19, 857c0 <_ZN12effect_graph12select_inputE6vectorILj2EjE+0x50>
   85798:	29400682 	ldp	w2, w1, [x20]
   8579c:	f9400260 	ldr	x0, [x19]
   857a0:	290507a2 	stp	w2, w1, [x29, #40]
   857a4:	9100a3a1 	add	x1, x29, #0x28
   857a8:	940001a2 	bl	85e30 <_ZN6effect12select_inputE6vectorILj2EjE>
   857ac:	b4ffff20 	cbz	x0, 85790 <_ZN12effect_graph12select_inputE6vectorILj2EjE+0x20>
   857b0:	f9400fb4 	ldr	x20, [x29, #24]
   857b4:	f9400bf3 	ldr	x19, [sp, #16]
   857b8:	a8c37bfd 	ldp	x29, x30, [sp], #48
   857bc:	d65f03c0 	ret
   857c0:	f9400fb4 	ldr	x20, [x29, #24]
   857c4:	f9400bf3 	ldr	x19, [sp, #16]
   857c8:	d2800000 	mov	x0, #0x0                   	// #0
   857cc:	a8c37bfd 	ldp	x29, x30, [sp], #48
   857d0:	d65f03c0 	ret
	...

00000000000857e0 <_ZN6effectC1E9rectangle5color>:
   857e0:	aa0203e3 	mov	x3, x2
   857e4:	aa0103e4 	mov	x4, x1
   857e8:	a9bc7bfd 	stp	x29, x30, [sp, #-64]!
   857ec:	910003fd 	mov	x29, sp
   857f0:	3940006a 	ldrb	w10, [x3]
   857f4:	9100a3a2 	add	x2, x29, #0x28
   857f8:	39400469 	ldrb	w9, [x3, #1]
   857fc:	9100c3a1 	add	x1, x29, #0x30
   85800:	39400868 	ldrb	w8, [x3, #2]
   85804:	29401887 	ldp	w7, w6, [x4]
   85808:	3900a3aa 	strb	w10, [x29, #40]
   8580c:	39400c63 	ldrb	w3, [x3, #3]
   85810:	29411085 	ldp	w5, w4, [x4, #8]
   85814:	3900a7a9 	strb	w9, [x29, #41]
   85818:	f9000bf3 	str	x19, [sp, #16]
   8581c:	aa0003f3 	mov	x19, x0
   85820:	3900aba8 	strb	w8, [x29, #42]
   85824:	3900afa3 	strb	w3, [x29, #43]
   85828:	29061ba7 	stp	w7, w6, [x29, #48]
   8582c:	290713a5 	stp	w5, w4, [x29, #56]
   85830:	97fff504 	bl	82c40 <_ZN14graphic_objectC1E9rectangle5color>
   85834:	9100a3a0 	add	x0, x29, #0x28
   85838:	97fff4ce 	bl	82b70 <_ZN5colorD1Ev>
   8583c:	9100c3a0 	add	x0, x29, #0x30
   85840:	97ffee08 	bl	81060 <_ZN9rectangleD1Ev>
   85844:	aa1303e0 	mov	x0, x19
   85848:	90000041 	adrp	x1, 8d000 <_ZN4font9monospaceE+0x5760>
   8584c:	91360021 	add	x1, x1, #0xd80
   85850:	f8030401 	str	x1, [x0], #48
   85854:	f9001a7f 	str	xzr, [x19, #48]
   85858:	f900041f 	str	xzr, [x0, #8]
   8585c:	a9047e7f 	stp	xzr, xzr, [x19, #64]
   85860:	a9057e7f 	stp	xzr, xzr, [x19, #80]
   85864:	f9400bf3 	ldr	x19, [sp, #16]
   85868:	a8c47bfd 	ldp	x29, x30, [sp], #64
   8586c:	d65f03c0 	ret

0000000000085870 <_ZN6effectD1Ev>:
   85870:	a9be7bfd 	stp	x29, x30, [sp, #-32]!
   85874:	90000041 	adrp	x1, 8d000 <_ZN4font9monospaceE+0x5760>
   85878:	91360021 	add	x1, x1, #0xd80
   8587c:	910003fd 	mov	x29, sp
   85880:	f9000bf3 	str	x19, [sp, #16]
   85884:	aa0003f3 	mov	x19, x0
   85888:	f9402800 	ldr	x0, [x0, #80]
   8588c:	f9000261 	str	x1, [x19]
   85890:	b4000140 	cbz	x0, 858b8 <_ZN6effectD1Ev+0x48>
   85894:	f9402e64 	ldr	x4, [x19, #88]
   85898:	d2800301 	mov	x1, #0x18                  	// #24
   8589c:	f9400482 	ldr	x2, [x4, #8]
   858a0:	b40003c2 	cbz	x2, 85918 <_ZN6effectD1Ev+0xa8>
   858a4:	f900085f 	str	xzr, [x2, #16]
   858a8:	f9002e62 	str	x2, [x19, #88]
   858ac:	97ffefe9 	bl	81850 <_ZdlPvm>
   858b0:	f9402a60 	ldr	x0, [x19, #80]
   858b4:	b5ffff00 	cbnz	x0, 85894 <_ZN6effectD1Ev+0x24>
   858b8:	f9402260 	ldr	x0, [x19, #64]
   858bc:	d503201f 	nop
   858c0:	b4000140 	cbz	x0, 858e8 <_ZN6effectD1Ev+0x78>
   858c4:	f9402664 	ldr	x4, [x19, #72]
   858c8:	d2800301 	mov	x1, #0x18                  	// #24
   858cc:	f9400482 	ldr	x2, [x4, #8]
   858d0:	b40002e2 	cbz	x2, 8592c <_ZN6effectD1Ev+0xbc>
   858d4:	f900085f 	str	xzr, [x2, #16]
   858d8:	f9002662 	str	x2, [x19, #72]
   858dc:	97ffefdd 	bl	81850 <_ZdlPvm>
   858e0:	f9402260 	ldr	x0, [x19, #64]
   858e4:	b5ffff00 	cbnz	x0, 858c4 <_ZN6effectD1Ev+0x54>
   858e8:	f9401a60 	ldr	x0, [x19, #48]
   858ec:	d503201f 	nop
   858f0:	b40002e0 	cbz	x0, 8594c <_ZN6effectD1Ev+0xdc>
   858f4:	f9401e64 	ldr	x4, [x19, #56]
   858f8:	d2800301 	mov	x1, #0x18                  	// #24
   858fc:	f9400482 	ldr	x2, [x4, #8]
   85900:	b4000202 	cbz	x2, 85940 <_ZN6effectD1Ev+0xd0>
   85904:	f900085f 	str	xzr, [x2, #16]
   85908:	f9001e62 	str	x2, [x19, #56]
   8590c:	97ffefd1 	bl	81850 <_ZdlPvm>
   85910:	f9401a60 	ldr	x0, [x19, #48]
   85914:	17fffff7 	b	858f0 <_ZN6effectD1Ev+0x80>
   85918:	aa0403e0 	mov	x0, x4
   8591c:	d2800301 	mov	x1, #0x18                  	// #24
   85920:	97ffefcc 	bl	81850 <_ZdlPvm>
   85924:	f9402260 	ldr	x0, [x19, #64]
   85928:	17ffffe6 	b	858c0 <_ZN6effectD1Ev+0x50>
   8592c:	aa0403e0 	mov	x0, x4
   85930:	d2800301 	mov	x1, #0x18                  	// #24
   85934:	97ffefc7 	bl	81850 <_ZdlPvm>
   85938:	f9401a60 	ldr	x0, [x19, #48]
   8593c:	17ffffed 	b	858f0 <_ZN6effectD1Ev+0x80>
   85940:	d2800301 	mov	x1, #0x18                  	// #24
   85944:	aa0403e0 	mov	x0, x4
   85948:	97ffefc2 	bl	81850 <_ZdlPvm>
   8594c:	aa1303e0 	mov	x0, x19
   85950:	f9400bf3 	ldr	x19, [sp, #16]
   85954:	a8c27bfd 	ldp	x29, x30, [sp], #32
   85958:	17fff51e 	b	82dd0 <_ZN14graphic_objectD1Ev>
   8595c:	d503201f 	nop

0000000000085960 <_ZN6effectD0Ev>:
   85960:	a9be7bfd 	stp	x29, x30, [sp, #-32]!
   85964:	910003fd 	mov	x29, sp
   85968:	f9000bf3 	str	x19, [sp, #16]
   8596c:	aa0003f3 	mov	x19, x0
   85970:	97ffffc0 	bl	85870 <_ZN6effectD1Ev>
   85974:	aa1303e0 	mov	x0, x19
   85978:	f9400bf3 	ldr	x19, [sp, #16]
   8597c:	a8c27bfd 	ldp	x29, x30, [sp], #32
   85980:	d2800c01 	mov	x1, #0x60                  	// #96
   85984:	17ffefb3 	b	81850 <_ZdlPvm>
   85988:	d503201f 	nop
   8598c:	d503201f 	nop

0000000000085990 <_ZN6effect14set_own_screenEP6screen>:
   85990:	a9bd7bfd 	stp	x29, x30, [sp, #-48]!
   85994:	910003fd 	mov	x29, sp
   85998:	f90013f5 	str	x21, [sp, #32]
   8599c:	aa0003f5 	mov	x21, x0
   859a0:	a90153f3 	stp	x19, x20, [sp, #16]
   859a4:	aa0103f4 	mov	x20, x1
   859a8:	97fff4e6 	bl	82d40 <_ZN14graphic_object14set_own_screenEP6screen>
   859ac:	f94022b3 	ldr	x19, [x21, #64]
   859b0:	b40000f3 	cbz	x19, 859cc <_ZN6effect14set_own_screenEP6screen+0x3c>
   859b4:	d503201f 	nop
   859b8:	f9400260 	ldr	x0, [x19]
   859bc:	aa1403e1 	mov	x1, x20
   859c0:	97fff4e0 	bl	82d40 <_ZN14graphic_object14set_own_screenEP6screen>
   859c4:	f9400a73 	ldr	x19, [x19, #16]
   859c8:	b5ffff93 	cbnz	x19, 859b8 <_ZN6effect14set_own_screenEP6screen+0x28>
   859cc:	f9402ab3 	ldr	x19, [x21, #80]
   859d0:	b40000f3 	cbz	x19, 859ec <_ZN6effect14set_own_screenEP6screen+0x5c>
   859d4:	d503201f 	nop
   859d8:	f9400260 	ldr	x0, [x19]
   859dc:	aa1403e1 	mov	x1, x20
   859e0:	97fff4d8 	bl	82d40 <_ZN14graphic_object14set_own_screenEP6screen>
   859e4:	f9400a73 	ldr	x19, [x19, #16]
   859e8:	b5ffff93 	cbnz	x19, 859d8 <_ZN6effect14set_own_screenEP6screen+0x48>
   859ec:	f9401ab3 	ldr	x19, [x21, #48]
   859f0:	b40000f3 	cbz	x19, 85a0c <_ZN6effect14set_own_screenEP6screen+0x7c>
   859f4:	d503201f 	nop
   859f8:	f9400260 	ldr	x0, [x19]
   859fc:	aa1403e1 	mov	x1, x20
   85a00:	97fff4d0 	bl	82d40 <_ZN14graphic_object14set_own_screenEP6screen>
   85a04:	f9400a73 	ldr	x19, [x19, #16]
   85a08:	b5ffff93 	cbnz	x19, 859f8 <_ZN6effect14set_own_screenEP6screen+0x68>
   85a0c:	a94153f3 	ldp	x19, x20, [sp, #16]
   85a10:	f94013f5 	ldr	x21, [sp, #32]
   85a14:	a8c37bfd 	ldp	x29, x30, [sp], #48
   85a18:	d65f03c0 	ret
   85a1c:	d503201f 	nop

0000000000085a20 <_ZN6effect10add_buttonEP6button>:
   85a20:	a9bd7bfd 	stp	x29, x30, [sp, #-48]!
   85a24:	910003fd 	mov	x29, sp
   85a28:	a90153f3 	stp	x19, x20, [sp, #16]
   85a2c:	9100c013 	add	x19, x0, #0x30
   85a30:	f90013f5 	str	x21, [sp, #32]
   85a34:	aa0103f5 	mov	x21, x1
   85a38:	aa0003f4 	mov	x20, x0
   85a3c:	91002001 	add	x1, x0, #0x8
   85a40:	aa1503e0 	mov	x0, x21
   85a44:	97fff4a7 	bl	82ce0 <_ZN14graphic_object14set_boundariesEP9rectangle>
   85a48:	f9400660 	ldr	x0, [x19, #8]
   85a4c:	b4000180 	cbz	x0, 85a7c <_ZN6effect10add_buttonEP6button+0x5c>
   85a50:	d2800300 	mov	x0, #0x18                  	// #24
   85a54:	97ffef6f 	bl	81810 <_Znwm>
   85a58:	f9400661 	ldr	x1, [x19, #8]
   85a5c:	a9000415 	stp	x21, x1, [x0]
   85a60:	f900081f 	str	xzr, [x0, #16]
   85a64:	f9000820 	str	x0, [x1, #16]
   85a68:	f9000660 	str	x0, [x19, #8]
   85a6c:	a94153f3 	ldp	x19, x20, [sp, #16]
   85a70:	f94013f5 	ldr	x21, [sp, #32]
   85a74:	a8c37bfd 	ldp	x29, x30, [sp], #48
   85a78:	d65f03c0 	ret
   85a7c:	d2800300 	mov	x0, #0x18                  	// #24
   85a80:	97ffef64 	bl	81810 <_Znwm>
   85a84:	f9001a80 	str	x0, [x20, #48]
   85a88:	a9007c15 	stp	x21, xzr, [x0]
   85a8c:	f9000660 	str	x0, [x19, #8]
   85a90:	f900081f 	str	xzr, [x0, #16]
   85a94:	a94153f3 	ldp	x19, x20, [sp, #16]
   85a98:	f94013f5 	ldr	x21, [sp, #32]
   85a9c:	a8c37bfd 	ldp	x29, x30, [sp], #48
   85aa0:	d65f03c0 	ret
   85aa4:	d503201f 	nop
   85aa8:	d503201f 	nop
   85aac:	d503201f 	nop

0000000000085ab0 <_ZN6effect9add_inputEP5input>:
   85ab0:	a9bd7bfd 	stp	x29, x30, [sp, #-48]!
   85ab4:	910003fd 	mov	x29, sp
   85ab8:	a90153f3 	stp	x19, x20, [sp, #16]
   85abc:	91010013 	add	x19, x0, #0x40
   85ac0:	f90013f5 	str	x21, [sp, #32]
   85ac4:	aa0103f5 	mov	x21, x1
   85ac8:	aa0003f4 	mov	x20, x0
   85acc:	91002001 	add	x1, x0, #0x8
   85ad0:	aa1503e0 	mov	x0, x21
   85ad4:	97fff483 	bl	82ce0 <_ZN14graphic_object14set_boundariesEP9rectangle>
   85ad8:	f9400660 	ldr	x0, [x19, #8]
   85adc:	b4000180 	cbz	x0, 85b0c <_ZN6effect9add_inputEP5input+0x5c>
   85ae0:	d2800300 	mov	x0, #0x18                  	// #24
   85ae4:	97ffef4b 	bl	81810 <_Znwm>
   85ae8:	f9400661 	ldr	x1, [x19, #8]
   85aec:	a9000415 	stp	x21, x1, [x0]
   85af0:	f900081f 	str	xzr, [x0, #16]
   85af4:	f9000820 	str	x0, [x1, #16]
   85af8:	f9000660 	str	x0, [x19, #8]
   85afc:	a94153f3 	ldp	x19, x20, [sp, #16]
   85b00:	f94013f5 	ldr	x21, [sp, #32]
   85b04:	a8c37bfd 	ldp	x29, x30, [sp], #48
   85b08:	d65f03c0 	ret
   85b0c:	d2800300 	mov	x0, #0x18                  	// #24
   85b10:	97ffef40 	bl	81810 <_Znwm>
   85b14:	f9002280 	str	x0, [x20, #64]
   85b18:	a9007c15 	stp	x21, xzr, [x0]
   85b1c:	f9000660 	str	x0, [x19, #8]
   85b20:	f900081f 	str	xzr, [x0, #16]
   85b24:	a94153f3 	ldp	x19, x20, [sp, #16]
   85b28:	f94013f5 	ldr	x21, [sp, #32]
   85b2c:	a8c37bfd 	ldp	x29, x30, [sp], #48
   85b30:	d65f03c0 	ret
   85b34:	d503201f 	nop
   85b38:	d503201f 	nop
   85b3c:	d503201f 	nop

0000000000085b40 <_ZN6effect10add_outputEP6output>:
   85b40:	a9bd7bfd 	stp	x29, x30, [sp, #-48]!
   85b44:	910003fd 	mov	x29, sp
   85b48:	a90153f3 	stp	x19, x20, [sp, #16]
   85b4c:	91014013 	add	x19, x0, #0x50
   85b50:	f90013f5 	str	x21, [sp, #32]
   85b54:	aa0103f5 	mov	x21, x1
   85b58:	aa0003f4 	mov	x20, x0
   85b5c:	91002001 	add	x1, x0, #0x8
   85b60:	aa1503e0 	mov	x0, x21
   85b64:	97fff45f 	bl	82ce0 <_ZN14graphic_object14set_boundariesEP9rectangle>
   85b68:	f9400660 	ldr	x0, [x19, #8]
   85b6c:	b4000180 	cbz	x0, 85b9c <_ZN6effect10add_outputEP6output+0x5c>
   85b70:	d2800300 	mov	x0, #0x18                  	// #24
   85b74:	97ffef27 	bl	81810 <_Znwm>
   85b78:	f9400661 	ldr	x1, [x19, #8]
   85b7c:	a9000415 	stp	x21, x1, [x0]
   85b80:	f900081f 	str	xzr, [x0, #16]
   85b84:	f9000820 	str	x0, [x1, #16]
   85b88:	f9000660 	str	x0, [x19, #8]
   85b8c:	a94153f3 	ldp	x19, x20, [sp, #16]
   85b90:	f94013f5 	ldr	x21, [sp, #32]
   85b94:	a8c37bfd 	ldp	x29, x30, [sp], #48
   85b98:	d65f03c0 	ret
   85b9c:	d2800300 	mov	x0, #0x18                  	// #24
   85ba0:	97ffef1c 	bl	81810 <_Znwm>
   85ba4:	f9002a80 	str	x0, [x20, #80]
   85ba8:	a9007c15 	stp	x21, xzr, [x0]
   85bac:	f9000660 	str	x0, [x19, #8]
   85bb0:	f900081f 	str	xzr, [x0, #16]
   85bb4:	a94153f3 	ldp	x19, x20, [sp, #16]
   85bb8:	f94013f5 	ldr	x21, [sp, #32]
   85bbc:	a8c37bfd 	ldp	x29, x30, [sp], #48
   85bc0:	d65f03c0 	ret
   85bc4:	d503201f 	nop
   85bc8:	d503201f 	nop
   85bcc:	d503201f 	nop

0000000000085bd0 <_ZN6effect6updateEv>:
   85bd0:	a9be7bfd 	stp	x29, x30, [sp, #-32]!
   85bd4:	910003fd 	mov	x29, sp
   85bd8:	a90153f3 	stp	x19, x20, [sp, #16]
   85bdc:	aa0003f4 	mov	x20, x0
   85be0:	f9402013 	ldr	x19, [x0, #64]
   85be4:	b5000093 	cbnz	x19, 85bf4 <_ZN6effect6updateEv+0x24>
   85be8:	1400000a 	b	85c10 <_ZN6effect6updateEv+0x40>
   85bec:	f9400a73 	ldr	x19, [x19, #16]
   85bf0:	b4000113 	cbz	x19, 85c10 <_ZN6effect6updateEv+0x40>
   85bf4:	f9400260 	ldr	x0, [x19]
   85bf8:	97fffdd6 	bl	85350 <_ZN5input11frame_readyEv>
   85bfc:	72001c00 	ands	w0, w0, #0xff
   85c00:	54ffff61 	b.ne	85bec <_ZN6effect6updateEv+0x1c>  // b.any
   85c04:	a94153f3 	ldp	x19, x20, [sp, #16]
   85c08:	a8c27bfd 	ldp	x29, x30, [sp], #32
   85c0c:	d65f03c0 	ret
   85c10:	f9400281 	ldr	x1, [x20]
   85c14:	aa1403e0 	mov	x0, x20
   85c18:	f9400c21 	ldr	x1, [x1, #24]
   85c1c:	d63f0020 	blr	x1
   85c20:	52800020 	mov	w0, #0x1                   	// #1
   85c24:	a94153f3 	ldp	x19, x20, [sp, #16]
   85c28:	a8c27bfd 	ldp	x29, x30, [sp], #32
   85c2c:	d65f03c0 	ret

0000000000085c30 <_ZN6effect4drawEv>:
   85c30:	a9be7bfd 	stp	x29, x30, [sp, #-32]!
   85c34:	910003fd 	mov	x29, sp
   85c38:	a90153f3 	stp	x19, x20, [sp, #16]
   85c3c:	aa0003f4 	mov	x20, x0
   85c40:	97fff480 	bl	82e40 <_ZN14graphic_object4drawEv>
   85c44:	f9402293 	ldr	x19, [x20, #64]
   85c48:	b40000d3 	cbz	x19, 85c60 <_ZN6effect4drawEv+0x30>
   85c4c:	d503201f 	nop
   85c50:	f9400260 	ldr	x0, [x19]
   85c54:	97fff47b 	bl	82e40 <_ZN14graphic_object4drawEv>
   85c58:	f9400a73 	ldr	x19, [x19, #16]
   85c5c:	b5ffffb3 	cbnz	x19, 85c50 <_ZN6effect4drawEv+0x20>
   85c60:	f9402a93 	ldr	x19, [x20, #80]
   85c64:	b40000b3 	cbz	x19, 85c78 <_ZN6effect4drawEv+0x48>
   85c68:	f9400260 	ldr	x0, [x19]
   85c6c:	97fff475 	bl	82e40 <_ZN14graphic_object4drawEv>
   85c70:	f9400a73 	ldr	x19, [x19, #16]
   85c74:	b5ffffb3 	cbnz	x19, 85c68 <_ZN6effect4drawEv+0x38>
   85c78:	f9401a93 	ldr	x19, [x20, #48]
   85c7c:	b40000b3 	cbz	x19, 85c90 <_ZN6effect4drawEv+0x60>
   85c80:	f9400260 	ldr	x0, [x19]
   85c84:	97fff46f 	bl	82e40 <_ZN14graphic_object4drawEv>
   85c88:	f9400a73 	ldr	x19, [x19, #16]
   85c8c:	b5ffffb3 	cbnz	x19, 85c80 <_ZN6effect4drawEv+0x50>
   85c90:	a94153f3 	ldp	x19, x20, [sp, #16]
   85c94:	a8c27bfd 	ldp	x29, x30, [sp], #32
   85c98:	d65f03c0 	ret
   85c9c:	d503201f 	nop

0000000000085ca0 <_ZN6effect16draw_connectionsEv>:
   85ca0:	a9be7bfd 	stp	x29, x30, [sp, #-32]!
   85ca4:	910003fd 	mov	x29, sp
   85ca8:	f9000bf3 	str	x19, [sp, #16]
   85cac:	f9402013 	ldr	x19, [x0, #64]
   85cb0:	b40000d3 	cbz	x19, 85cc8 <_ZN6effect16draw_connectionsEv+0x28>
   85cb4:	d503201f 	nop
   85cb8:	f9400260 	ldr	x0, [x19]
   85cbc:	97fffdad 	bl	85370 <_ZN5input15draw_connectionEv>
   85cc0:	f9400a73 	ldr	x19, [x19, #16]
   85cc4:	b5ffffb3 	cbnz	x19, 85cb8 <_ZN6effect16draw_connectionsEv+0x18>
   85cc8:	f9400bf3 	ldr	x19, [sp, #16]
   85ccc:	a8c27bfd 	ldp	x29, x30, [sp], #32
   85cd0:	d65f03c0 	ret
   85cd4:	d503201f 	nop
   85cd8:	d503201f 	nop
   85cdc:	d503201f 	nop

0000000000085ce0 <_ZN6effect13select_buttonE6vectorILj2EjE>:
   85ce0:	a9bc7bfd 	stp	x29, x30, [sp, #-64]!
   85ce4:	910003fd 	mov	x29, sp
   85ce8:	a90153f3 	stp	x19, x20, [sp, #16]
   85cec:	aa0103f4 	mov	x20, x1
   85cf0:	f9402013 	ldr	x19, [x0, #64]
   85cf4:	a9025bf5 	stp	x21, x22, [sp, #32]
   85cf8:	aa0003f6 	mov	x22, x0
   85cfc:	b40001f3 	cbz	x19, 85d38 <_ZN6effect13select_buttonE6vectorILj2EjE+0x58>
   85d00:	9100e3b5 	add	x21, x29, #0x38
   85d04:	14000003 	b	85d10 <_ZN6effect13select_buttonE6vectorILj2EjE+0x30>
   85d08:	f9400a73 	ldr	x19, [x19, #16]
   85d0c:	b4000173 	cbz	x19, 85d38 <_ZN6effect13select_buttonE6vectorILj2EjE+0x58>
   85d10:	29400682 	ldp	w2, w1, [x20]
   85d14:	f9400260 	ldr	x0, [x19]
   85d18:	290707a2 	stp	w2, w1, [x29, #56]
   85d1c:	aa1503e1 	mov	x1, x21
   85d20:	97fff4a0 	bl	82fa0 <_ZN14graphic_object11is_selectedE6vectorILj2EjE>
   85d24:	b4ffff20 	cbz	x0, 85d08 <_ZN6effect13select_buttonE6vectorILj2EjE+0x28>
   85d28:	a94153f3 	ldp	x19, x20, [sp, #16]
   85d2c:	a9425bf5 	ldp	x21, x22, [sp, #32]
   85d30:	a8c47bfd 	ldp	x29, x30, [sp], #64
   85d34:	d65f03c0 	ret
   85d38:	f9402ad3 	ldr	x19, [x22, #80]
   85d3c:	b4000193 	cbz	x19, 85d6c <_ZN6effect13select_buttonE6vectorILj2EjE+0x8c>
   85d40:	9100e3b5 	add	x21, x29, #0x38
   85d44:	14000003 	b	85d50 <_ZN6effect13select_buttonE6vectorILj2EjE+0x70>
   85d48:	f9400a73 	ldr	x19, [x19, #16]
   85d4c:	b4000113 	cbz	x19, 85d6c <_ZN6effect13select_buttonE6vectorILj2EjE+0x8c>
   85d50:	29400682 	ldp	w2, w1, [x20]
   85d54:	f9400260 	ldr	x0, [x19]
   85d58:	290707a2 	stp	w2, w1, [x29, #56]
   85d5c:	aa1503e1 	mov	x1, x21
   85d60:	97fff490 	bl	82fa0 <_ZN14graphic_object11is_selectedE6vectorILj2EjE>
   85d64:	b4ffff20 	cbz	x0, 85d48 <_ZN6effect13select_buttonE6vectorILj2EjE+0x68>
   85d68:	17fffff0 	b	85d28 <_ZN6effect13select_buttonE6vectorILj2EjE+0x48>
   85d6c:	f9401ad3 	ldr	x19, [x22, #48]
   85d70:	9100e3b5 	add	x21, x29, #0x38
   85d74:	b5000093 	cbnz	x19, 85d84 <_ZN6effect13select_buttonE6vectorILj2EjE+0xa4>
   85d78:	1400000a 	b	85da0 <_ZN6effect13select_buttonE6vectorILj2EjE+0xc0>
   85d7c:	f9400a73 	ldr	x19, [x19, #16]
   85d80:	b4000113 	cbz	x19, 85da0 <_ZN6effect13select_buttonE6vectorILj2EjE+0xc0>
   85d84:	29400682 	ldp	w2, w1, [x20]
   85d88:	f9400260 	ldr	x0, [x19]
   85d8c:	290707a2 	stp	w2, w1, [x29, #56]
   85d90:	aa1503e1 	mov	x1, x21
   85d94:	97fff483 	bl	82fa0 <_ZN14graphic_object11is_selectedE6vectorILj2EjE>
   85d98:	b4ffff20 	cbz	x0, 85d7c <_ZN6effect13select_buttonE6vectorILj2EjE+0x9c>
   85d9c:	17ffffe3 	b	85d28 <_ZN6effect13select_buttonE6vectorILj2EjE+0x48>
   85da0:	a94153f3 	ldp	x19, x20, [sp, #16]
   85da4:	d2800000 	mov	x0, #0x0                   	// #0
   85da8:	a9425bf5 	ldp	x21, x22, [sp, #32]
   85dac:	a8c47bfd 	ldp	x29, x30, [sp], #64
   85db0:	d65f03c0 	ret
   85db4:	d503201f 	nop
   85db8:	d503201f 	nop
   85dbc:	d503201f 	nop

0000000000085dc0 <_ZN6effect13select_outputE6vectorILj2EjE>:
   85dc0:	a9bd7bfd 	stp	x29, x30, [sp, #-48]!
   85dc4:	910003fd 	mov	x29, sp
   85dc8:	f9000bf3 	str	x19, [sp, #16]
   85dcc:	f9402813 	ldr	x19, [x0, #80]
   85dd0:	b4000233 	cbz	x19, 85e14 <_ZN6effect13select_outputE6vectorILj2EjE+0x54>
   85dd4:	f9000fb4 	str	x20, [x29, #24]
   85dd8:	aa0103f4 	mov	x20, x1
   85ddc:	14000003 	b	85de8 <_ZN6effect13select_outputE6vectorILj2EjE+0x28>
   85de0:	f9400a73 	ldr	x19, [x19, #16]
   85de4:	b4000173 	cbz	x19, 85e10 <_ZN6effect13select_outputE6vectorILj2EjE+0x50>
   85de8:	29400682 	ldp	w2, w1, [x20]
   85dec:	f9400260 	ldr	x0, [x19]
   85df0:	290507a2 	stp	w2, w1, [x29, #40]
   85df4:	9100a3a1 	add	x1, x29, #0x28
   85df8:	97fff46a 	bl	82fa0 <_ZN14graphic_object11is_selectedE6vectorILj2EjE>
   85dfc:	b4ffff20 	cbz	x0, 85de0 <_ZN6effect13select_outputE6vectorILj2EjE+0x20>
   85e00:	f9400fb4 	ldr	x20, [x29, #24]
   85e04:	f9400bf3 	ldr	x19, [sp, #16]
   85e08:	a8c37bfd 	ldp	x29, x30, [sp], #48
   85e0c:	d65f03c0 	ret
   85e10:	f9400fb4 	ldr	x20, [x29, #24]
   85e14:	f9400bf3 	ldr	x19, [sp, #16]
   85e18:	d2800000 	mov	x0, #0x0                   	// #0
   85e1c:	a8c37bfd 	ldp	x29, x30, [sp], #48
   85e20:	d65f03c0 	ret
   85e24:	d503201f 	nop
   85e28:	d503201f 	nop
   85e2c:	d503201f 	nop

0000000000085e30 <_ZN6effect12select_inputE6vectorILj2EjE>:
   85e30:	a9bd7bfd 	stp	x29, x30, [sp, #-48]!
   85e34:	910003fd 	mov	x29, sp
   85e38:	f9000bf3 	str	x19, [sp, #16]
   85e3c:	f9402013 	ldr	x19, [x0, #64]
   85e40:	b4000233 	cbz	x19, 85e84 <_ZN6effect12select_inputE6vectorILj2EjE+0x54>
   85e44:	f9000fb4 	str	x20, [x29, #24]
   85e48:	aa0103f4 	mov	x20, x1
   85e4c:	14000003 	b	85e58 <_ZN6effect12select_inputE6vectorILj2EjE+0x28>
   85e50:	f9400a73 	ldr	x19, [x19, #16]
   85e54:	b4000173 	cbz	x19, 85e80 <_ZN6effect12select_inputE6vectorILj2EjE+0x50>
   85e58:	29400682 	ldp	w2, w1, [x20]
   85e5c:	f9400260 	ldr	x0, [x19]
   85e60:	290507a2 	stp	w2, w1, [x29, #40]
   85e64:	9100a3a1 	add	x1, x29, #0x28
   85e68:	97fff44e 	bl	82fa0 <_ZN14graphic_object11is_selectedE6vectorILj2EjE>
   85e6c:	b4ffff20 	cbz	x0, 85e50 <_ZN6effect12select_inputE6vectorILj2EjE+0x20>
   85e70:	f9400fb4 	ldr	x20, [x29, #24]
   85e74:	f9400bf3 	ldr	x19, [sp, #16]
   85e78:	a8c37bfd 	ldp	x29, x30, [sp], #48
   85e7c:	d65f03c0 	ret
   85e80:	f9400fb4 	ldr	x20, [x29, #24]
   85e84:	f9400bf3 	ldr	x19, [sp, #16]
   85e88:	d2800000 	mov	x0, #0x0                   	// #0
   85e8c:	a8c37bfd 	ldp	x29, x30, [sp], #48
   85e90:	d65f03c0 	ret
   85e94:	d503201f 	nop
   85e98:	d503201f 	nop
   85e9c:	d503201f 	nop

0000000000085ea0 <_ZN6effect4moveE6vectorILj2EjE>:
   85ea0:	a9bc7bfd 	stp	x29, x30, [sp, #-64]!
   85ea4:	910003fd 	mov	x29, sp
   85ea8:	a90153f3 	stp	x19, x20, [sp, #16]
   85eac:	aa0103f3 	mov	x19, x1
   85eb0:	a9025bf5 	stp	x21, x22, [sp, #32]
   85eb4:	aa0003f6 	mov	x22, x0
   85eb8:	9100c3a1 	add	x1, x29, #0x30
   85ebc:	aa0803f5 	mov	x21, x8
   85ec0:	29400a63 	ldp	w3, w2, [x19]
   85ec4:	9100e3a8 	add	x8, x29, #0x38
   85ec8:	29060ba3 	stp	w3, w2, [x29, #48]
   85ecc:	97fff32d 	bl	82b80 <_ZN14graphic_object4moveE6vectorILj2EjE>
   85ed0:	f94022d4 	ldr	x20, [x22, #64]
   85ed4:	294703a1 	ldp	w1, w0, [x29, #56]
   85ed8:	29000261 	stp	w1, w0, [x19]
   85edc:	b4000194 	cbz	x20, 85f0c <_ZN6effect4moveE6vectorILj2EjE+0x6c>
   85ee0:	f9400282 	ldr	x2, [x20]
   85ee4:	9100e3a8 	add	x8, x29, #0x38
   85ee8:	29400e64 	ldp	w4, w3, [x19]
   85eec:	aa0203e0 	mov	x0, x2
   85ef0:	f9400042 	ldr	x2, [x2]
   85ef4:	9100c3a1 	add	x1, x29, #0x30
   85ef8:	f9400842 	ldr	x2, [x2, #16]
   85efc:	29060fa4 	stp	w4, w3, [x29, #48]
   85f00:	d63f0040 	blr	x2
   85f04:	f9400a94 	ldr	x20, [x20, #16]
   85f08:	b5fffed4 	cbnz	x20, 85ee0 <_ZN6effect4moveE6vectorILj2EjE+0x40>
   85f0c:	f9402ad4 	ldr	x20, [x22, #80]
   85f10:	b40001b4 	cbz	x20, 85f44 <_ZN6effect4moveE6vectorILj2EjE+0xa4>
   85f14:	d503201f 	nop
   85f18:	f9400282 	ldr	x2, [x20]
   85f1c:	9100e3a8 	add	x8, x29, #0x38
   85f20:	29400e64 	ldp	w4, w3, [x19]
   85f24:	aa0203e0 	mov	x0, x2
   85f28:	f9400042 	ldr	x2, [x2]
   85f2c:	9100c3a1 	add	x1, x29, #0x30
   85f30:	f9400842 	ldr	x2, [x2, #16]
   85f34:	29060fa4 	stp	w4, w3, [x29, #48]
   85f38:	d63f0040 	blr	x2
   85f3c:	f9400a94 	ldr	x20, [x20, #16]
   85f40:	b5fffed4 	cbnz	x20, 85f18 <_ZN6effect4moveE6vectorILj2EjE+0x78>
   85f44:	f9401ad4 	ldr	x20, [x22, #48]
   85f48:	b40001b4 	cbz	x20, 85f7c <_ZN6effect4moveE6vectorILj2EjE+0xdc>
   85f4c:	d503201f 	nop
   85f50:	f9400282 	ldr	x2, [x20]
   85f54:	9100e3a8 	add	x8, x29, #0x38
   85f58:	29400e64 	ldp	w4, w3, [x19]
   85f5c:	aa0203e0 	mov	x0, x2
   85f60:	f9400042 	ldr	x2, [x2]
   85f64:	9100c3a1 	add	x1, x29, #0x30
   85f68:	f9400842 	ldr	x2, [x2, #16]
   85f6c:	29060fa4 	stp	w4, w3, [x29, #48]
   85f70:	d63f0040 	blr	x2
   85f74:	f9400a94 	ldr	x20, [x20, #16]
   85f78:	b5fffed4 	cbnz	x20, 85f50 <_ZN6effect4moveE6vectorILj2EjE+0xb0>
   85f7c:	29400261 	ldp	w1, w0, [x19]
   85f80:	a94153f3 	ldp	x19, x20, [sp, #16]
   85f84:	290002a1 	stp	w1, w0, [x21]
   85f88:	aa1503e0 	mov	x0, x21
   85f8c:	a9425bf5 	ldp	x21, x22, [sp, #32]
   85f90:	a8c47bfd 	ldp	x29, x30, [sp], #64
   85f94:	d65f03c0 	ret
	...

0000000000085fa0 <_ZN13effect_looperD1Ev>:
   85fa0:	a9be7bfd 	stp	x29, x30, [sp, #-32]!
   85fa4:	90000041 	adrp	x1, 8d000 <_ZN4font9monospaceE+0x5760>
   85fa8:	9136c021 	add	x1, x1, #0xdb0
   85fac:	910003fd 	mov	x29, sp
   85fb0:	f9000bf3 	str	x19, [sp, #16]
   85fb4:	aa0003f3 	mov	x19, x0
   85fb8:	f9403800 	ldr	x0, [x0, #112]
   85fbc:	f9000261 	str	x1, [x19]
   85fc0:	b40001a0 	cbz	x0, 85ff4 <_ZN13effect_looperD1Ev+0x54>
   85fc4:	f9403e64 	ldr	x4, [x19, #120]
   85fc8:	d2800301 	mov	x1, #0x18                  	// #24
   85fcc:	f9400482 	ldr	x2, [x4, #8]
   85fd0:	b40000c2 	cbz	x2, 85fe8 <_ZN13effect_looperD1Ev+0x48>
   85fd4:	f900085f 	str	xzr, [x2, #16]
   85fd8:	f9003e62 	str	x2, [x19, #120]
   85fdc:	97ffee1d 	bl	81850 <_ZdlPvm>
   85fe0:	f9403a60 	ldr	x0, [x19, #112]
   85fe4:	17fffff7 	b	85fc0 <_ZN13effect_looperD1Ev+0x20>
   85fe8:	d2800301 	mov	x1, #0x18                  	// #24
   85fec:	aa0403e0 	mov	x0, x4
   85ff0:	97ffee18 	bl	81850 <_ZdlPvm>
   85ff4:	aa1303e0 	mov	x0, x19
   85ff8:	f9400bf3 	ldr	x19, [sp, #16]
   85ffc:	a8c27bfd 	ldp	x29, x30, [sp], #32
   86000:	17fffe1c 	b	85870 <_ZN6effectD1Ev>
   86004:	d503201f 	nop
   86008:	d503201f 	nop
   8600c:	d503201f 	nop

0000000000086010 <_ZN13effect_looperD0Ev>:
   86010:	a9be7bfd 	stp	x29, x30, [sp, #-32]!
   86014:	f0000021 	adrp	x1, 8d000 <_ZN4font9monospaceE+0x5760>
   86018:	9136c021 	add	x1, x1, #0xdb0
   8601c:	910003fd 	mov	x29, sp
   86020:	f9000bf3 	str	x19, [sp, #16]
   86024:	aa0003f3 	mov	x19, x0
   86028:	f9403800 	ldr	x0, [x0, #112]
   8602c:	f9000261 	str	x1, [x19]
   86030:	b40001a0 	cbz	x0, 86064 <_ZN13effect_looperD0Ev+0x54>
   86034:	f9403e64 	ldr	x4, [x19, #120]
   86038:	d2800301 	mov	x1, #0x18                  	// #24
   8603c:	f9400482 	ldr	x2, [x4, #8]
   86040:	b40000c2 	cbz	x2, 86058 <_ZN13effect_looperD0Ev+0x48>
   86044:	f900085f 	str	xzr, [x2, #16]
   86048:	f9003e62 	str	x2, [x19, #120]
   8604c:	97ffee01 	bl	81850 <_ZdlPvm>
   86050:	f9403a60 	ldr	x0, [x19, #112]
   86054:	17fffff7 	b	86030 <_ZN13effect_looperD0Ev+0x20>
   86058:	d2800301 	mov	x1, #0x18                  	// #24
   8605c:	aa0403e0 	mov	x0, x4
   86060:	97ffedfc 	bl	81850 <_ZdlPvm>
   86064:	aa1303e0 	mov	x0, x19
   86068:	97fffe02 	bl	85870 <_ZN6effectD1Ev>
   8606c:	aa1303e0 	mov	x0, x19
   86070:	f9400bf3 	ldr	x19, [sp, #16]
   86074:	a8c27bfd 	ldp	x29, x30, [sp], #32
   86078:	d2801301 	mov	x1, #0x98                  	// #152
   8607c:	17ffedf5 	b	81850 <_ZdlPvm>

0000000000086080 <_ZN13effect_looper7processEv>:
   86080:	a9be7bfd 	stp	x29, x30, [sp, #-32]!
   86084:	910003fd 	mov	x29, sp
   86088:	f9404402 	ldr	x2, [x0, #136]
   8608c:	b9409001 	ldr	w1, [x0, #144]
   86090:	f9000bf3 	str	x19, [sp, #16]
   86094:	7100083f 	cmp	w1, #0x2
   86098:	f9400053 	ldr	x19, [x2]
   8609c:	540007e0 	b.eq	86198 <_ZN13effect_looper7processEv+0x118>  // b.none
   860a0:	71000c3f 	cmp	w1, #0x3
   860a4:	54000360 	b.eq	86110 <_ZN13effect_looper7processEv+0x90>  // b.none
   860a8:	7100043f 	cmp	w1, #0x1
   860ac:	54000080 	b.eq	860bc <_ZN13effect_looper7processEv+0x3c>  // b.none
   860b0:	f9400bf3 	ldr	x19, [sp, #16]
   860b4:	a8c27bfd 	ldp	x29, x30, [sp], #32
   860b8:	d65f03c0 	ret
   860bc:	f9400661 	ldr	x1, [x19, #8]
   860c0:	b50000a1 	cbnz	x1, 860d4 <_ZN13effect_looper7processEv+0x54>
   860c4:	17fffffb 	b	860b0 <_ZN13effect_looper7processEv+0x30>
   860c8:	b9002040 	str	w0, [x2, #32]
   860cc:	f9400821 	ldr	x1, [x1, #16]
   860d0:	b4ffff01 	cbz	x1, 860b0 <_ZN13effect_looper7processEv+0x30>
   860d4:	f9400022 	ldr	x2, [x1]
   860d8:	b9402040 	ldr	w0, [x2, #32]
   860dc:	11000400 	add	w0, w0, #0x1
   860e0:	7103fc1f 	cmp	w0, #0xff
   860e4:	54ffff29 	b.ls	860c8 <_ZN13effect_looper7processEv+0x48>  // b.plast
   860e8:	f9400c43 	ldr	x3, [x2, #24]
   860ec:	91004040 	add	x0, x2, #0x10
   860f0:	f9400863 	ldr	x3, [x3, #16]
   860f4:	f9000c43 	str	x3, [x2, #24]
   860f8:	b900205f 	str	wzr, [x2, #32]
   860fc:	b5fffe83 	cbnz	x3, 860cc <_ZN13effect_looper7processEv+0x4c>
   86100:	f9400842 	ldr	x2, [x2, #16]
   86104:	f9400042 	ldr	x2, [x2]
   86108:	f9000402 	str	x2, [x0, #8]
   8610c:	17fffff0 	b	860cc <_ZN13effect_looper7processEv+0x4c>
   86110:	f9400662 	ldr	x2, [x19, #8]
   86114:	b50000a2 	cbnz	x2, 86128 <_ZN13effect_looper7processEv+0xa8>
   86118:	14000014 	b	86168 <_ZN13effect_looper7processEv+0xe8>
   8611c:	b9002061 	str	w1, [x3, #32]
   86120:	f9400842 	ldr	x2, [x2, #16]
   86124:	b4000222 	cbz	x2, 86168 <_ZN13effect_looper7processEv+0xe8>
   86128:	f9400043 	ldr	x3, [x2]
   8612c:	b9402061 	ldr	w1, [x3, #32]
   86130:	11000421 	add	w1, w1, #0x1
   86134:	7103fc3f 	cmp	w1, #0xff
   86138:	54ffff29 	b.ls	8611c <_ZN13effect_looper7processEv+0x9c>  // b.plast
   8613c:	f9400c64 	ldr	x4, [x3, #24]
   86140:	91004061 	add	x1, x3, #0x10
   86144:	f9400884 	ldr	x4, [x4, #16]
   86148:	f9000c64 	str	x4, [x3, #24]
   8614c:	b900207f 	str	wzr, [x3, #32]
   86150:	b5fffe84 	cbnz	x4, 86120 <_ZN13effect_looper7processEv+0xa0>
   86154:	f9400863 	ldr	x3, [x3, #16]
   86158:	f9400842 	ldr	x2, [x2, #16]
   8615c:	f9400063 	ldr	x3, [x3]
   86160:	f9000423 	str	x3, [x1, #8]
   86164:	b5fffe22 	cbnz	x2, 86128 <_ZN13effect_looper7processEv+0xa8>
   86168:	f9403000 	ldr	x0, [x0, #96]
   8616c:	97fffc71 	bl	85330 <_ZN5input9get_frameEv>
   86170:	1e624000 	fcvt	s0, d0
   86174:	f9401260 	ldr	x0, [x19, #32]
   86178:	f9400bf3 	ldr	x19, [sp, #16]
   8617c:	f9400000 	ldr	x0, [x0]
   86180:	f9400c02 	ldr	x2, [x0, #24]
   86184:	b9402001 	ldr	w1, [x0, #32]
   86188:	f9400040 	ldr	x0, [x2]
   8618c:	bc217800 	str	s0, [x0, x1, lsl #2]
   86190:	a8c27bfd 	ldp	x29, x30, [sp], #32
   86194:	d65f03c0 	ret
   86198:	f9403000 	ldr	x0, [x0, #96]
   8619c:	fd000fa8 	str	d8, [x29, #24]
   861a0:	97fffc64 	bl	85330 <_ZN5input9get_frameEv>
   861a4:	1e624008 	fcvt	s8, d0
   861a8:	f9401260 	ldr	x0, [x19, #32]
   861ac:	f9400013 	ldr	x19, [x0]
   861b0:	b9402260 	ldr	w0, [x19, #32]
   861b4:	11000400 	add	w0, w0, #0x1
   861b8:	b9002260 	str	w0, [x19, #32]
   861bc:	7103fc1f 	cmp	w0, #0xff
   861c0:	54000108 	b.hi	861e0 <_ZN13effect_looper7processEv+0x160>  // b.pmore
   861c4:	f9400e61 	ldr	x1, [x19, #24]
   861c8:	f9400021 	ldr	x1, [x1]
   861cc:	f9400bf3 	ldr	x19, [sp, #16]
   861d0:	bc205828 	str	s8, [x1, w0, uxtw #2]
   861d4:	fd400fa8 	ldr	d8, [x29, #24]
   861d8:	a8c27bfd 	ldp	x29, x30, [sp], #32
   861dc:	d65f03c0 	ret
   861e0:	f9400660 	ldr	x0, [x19, #8]
   861e4:	b900227f 	str	wzr, [x19, #32]
   861e8:	b40001a0 	cbz	x0, 8621c <_ZN13effect_looper7processEv+0x19c>
   861ec:	d2800300 	mov	x0, #0x18                  	// #24
   861f0:	97ffed88 	bl	81810 <_Znwm>
   861f4:	f9400661 	ldr	x1, [x19, #8]
   861f8:	a900041f 	stp	xzr, x1, [x0]
   861fc:	f900081f 	str	xzr, [x0, #16]
   86200:	f9000820 	str	x0, [x1, #16]
   86204:	f9000660 	str	x0, [x19, #8]
   86208:	f9400e61 	ldr	x1, [x19, #24]
   8620c:	b9402260 	ldr	w0, [x19, #32]
   86210:	f9400821 	ldr	x1, [x1, #16]
   86214:	f9000e61 	str	x1, [x19, #24]
   86218:	17ffffec 	b	861c8 <_ZN13effect_looper7processEv+0x148>
   8621c:	d2800300 	mov	x0, #0x18                  	// #24
   86220:	97ffed7c 	bl	81810 <_Znwm>
   86224:	a9007c1f 	stp	xzr, xzr, [x0]
   86228:	f900081f 	str	xzr, [x0, #16]
   8622c:	a9000260 	stp	x0, x0, [x19]
   86230:	17fffff6 	b	86208 <_ZN13effect_looper7processEv+0x188>
   86234:	d503201f 	nop
   86238:	d503201f 	nop
   8623c:	d503201f 	nop

0000000000086240 <_ZN13effect_looperC1E9rectangle5color>:
   86240:	aa0203e3 	mov	x3, x2
   86244:	aa0103e4 	mov	x4, x1
   86248:	a9ba7bfd 	stp	x29, x30, [sp, #-96]!
   8624c:	910003fd 	mov	x29, sp
   86250:	3940006a 	ldrb	w10, [x3]
   86254:	910123a2 	add	x2, x29, #0x48
   86258:	39400469 	ldrb	w9, [x3, #1]
   8625c:	910143a1 	add	x1, x29, #0x50
   86260:	39400868 	ldrb	w8, [x3, #2]
   86264:	29401887 	ldp	w7, w6, [x4]
   86268:	390123aa 	strb	w10, [x29, #72]
   8626c:	29411085 	ldp	w5, w4, [x4, #8]
   86270:	390127a9 	strb	w9, [x29, #73]
   86274:	39400c63 	ldrb	w3, [x3, #3]
   86278:	39012ba8 	strb	w8, [x29, #74]
   8627c:	39012fa3 	strb	w3, [x29, #75]
   86280:	290a1ba7 	stp	w7, w6, [x29, #80]
   86284:	290b13a5 	stp	w5, w4, [x29, #88]
   86288:	a90153f3 	stp	x19, x20, [sp, #16]
   8628c:	aa0003f3 	mov	x19, x0
   86290:	fd0013e8 	str	d8, [sp, #32]
   86294:	97fffd53 	bl	857e0 <_ZN6effectC1E9rectangle5color>
   86298:	910123a0 	add	x0, x29, #0x48
   8629c:	97fff235 	bl	82b70 <_ZN5colorD1Ev>
   862a0:	910143a0 	add	x0, x29, #0x50
   862a4:	97ffeb6f 	bl	81060 <_ZN9rectangleD1Ev>
   862a8:	aa1303e0 	mov	x0, x19
   862ac:	f0000021 	adrp	x1, 8d000 <_ZN4font9monospaceE+0x5760>
   862b0:	9136c021 	add	x1, x1, #0xdb0
   862b4:	5c0007e8 	ldr	d8, 863b0 <_ZN13effect_looperC1E9rectangle5color+0x170>
   862b8:	910123a2 	add	x2, x29, #0x48
   862bc:	f8070401 	str	x1, [x0], #112
   862c0:	910103a1 	add	x1, x29, #0x40
   862c4:	5c000720 	ldr	d0, 863a8 <_ZN13effect_looperC1E9rectangle5color+0x168>
   862c8:	f9003a7f 	str	xzr, [x19, #112]
   862cc:	f900041f 	str	xzr, [x0, #8]
   862d0:	a9087e60 	stp	x0, xzr, [x19, #128]
   862d4:	910143a0 	add	x0, x29, #0x50
   862d8:	6d0423a0 	stp	d0, d8, [x29, #64]
   862dc:	97ffeb55 	bl	81030 <_ZN9rectangleC1E6vectorILj2EjES1_>
   862e0:	12800004 	mov	w4, #0xffffffff            	// #-1
   862e4:	2a0403e1 	mov	w1, w4
   862e8:	52800003 	mov	w3, #0x0                   	// #0
   862ec:	52800002 	mov	w2, #0x0                   	// #0
   862f0:	9100e3a0 	add	x0, x29, #0x38
   862f4:	97fff217 	bl	82b50 <_ZN5colorC1Ehhhh>
   862f8:	d2800700 	mov	x0, #0x38                  	// #56
   862fc:	97ffed45 	bl	81810 <_Znwm>
   86300:	9100e3a2 	add	x2, x29, #0x38
   86304:	910143a1 	add	x1, x29, #0x50
   86308:	aa0003f4 	mov	x20, x0
   8630c:	97fffbe5 	bl	852a0 <_ZN5inputC1E9rectangle5color>
   86310:	f9003274 	str	x20, [x19, #96]
   86314:	9100e3a0 	add	x0, x29, #0x38
   86318:	97fff216 	bl	82b70 <_ZN5colorD1Ev>
   8631c:	910143a0 	add	x0, x29, #0x50
   86320:	97ffeb50 	bl	81060 <_ZN9rectangleD1Ev>
   86324:	5c0004a0 	ldr	d0, 863b8 <_ZN13effect_looperC1E9rectangle5color+0x178>
   86328:	910123a2 	add	x2, x29, #0x48
   8632c:	910103a1 	add	x1, x29, #0x40
   86330:	910143a0 	add	x0, x29, #0x50
   86334:	6d0423a0 	stp	d0, d8, [x29, #64]
   86338:	97ffeb3e 	bl	81030 <_ZN9rectangleC1E6vectorILj2EjES1_>
   8633c:	12800004 	mov	w4, #0xffffffff            	// #-1
   86340:	2a0403e2 	mov	w2, w4
   86344:	52800003 	mov	w3, #0x0                   	// #0
   86348:	52800001 	mov	w1, #0x0                   	// #0
   8634c:	9100e3a0 	add	x0, x29, #0x38
   86350:	97fff200 	bl	82b50 <_ZN5colorC1Ehhhh>
   86354:	d2800800 	mov	x0, #0x40                  	// #64
   86358:	97ffed2e 	bl	81810 <_Znwm>
   8635c:	9100e3a2 	add	x2, x29, #0x38
   86360:	910143a1 	add	x1, x29, #0x50
   86364:	aa0003f4 	mov	x20, x0
   86368:	94000386 	bl	87180 <_ZN6outputC1E9rectangle5color>
   8636c:	f9003674 	str	x20, [x19, #104]
   86370:	9100e3a0 	add	x0, x29, #0x38
   86374:	97fff1ff 	bl	82b70 <_ZN5colorD1Ev>
   86378:	910143a0 	add	x0, x29, #0x50
   8637c:	97ffeb39 	bl	81060 <_ZN9rectangleD1Ev>
   86380:	f9403261 	ldr	x1, [x19, #96]
   86384:	aa1303e0 	mov	x0, x19
   86388:	97fffdca 	bl	85ab0 <_ZN6effect9add_inputEP5input>
   8638c:	f9403661 	ldr	x1, [x19, #104]
   86390:	aa1303e0 	mov	x0, x19
   86394:	97fffdeb 	bl	85b40 <_ZN6effect10add_outputEP6output>
   86398:	a94153f3 	ldp	x19, x20, [sp, #16]
   8639c:	fd4013e8 	ldr	d8, [sp, #32]
   863a0:	a8c67bfd 	ldp	x29, x30, [sp], #96
   863a4:	d65f03c0 	ret
   863a8:	00000000 	.word	0x00000000
   863ac:	00000078 	.word	0x00000078
   863b0:	0000001e 	.word	0x0000001e
   863b4:	00000028 	.word	0x00000028
   863b8:	000000aa 	.word	0x000000aa
   863bc:	00000078 	.word	0x00000078

00000000000863c0 <_ZN13effect_looper7channelC1Ev>:
   863c0:	91002001 	add	x1, x0, #0x8
   863c4:	a900fc1f 	stp	xzr, xzr, [x0, #8]
   863c8:	a901fc01 	stp	x1, xzr, [x0, #24]
   863cc:	d65f03c0 	ret

00000000000863d0 <_ZN13effect_looper7channel4playEv>:
   863d0:	f9400402 	ldr	x2, [x0, #8]
   863d4:	0f000400 	movi	v0.2s, #0x0
   863d8:	b5000162 	cbnz	x2, 86404 <_ZN13effect_looper7channel4playEv+0x34>
   863dc:	14000019 	b	86440 <_ZN13effect_looper7channel4playEv+0x70>
   863e0:	b9002020 	str	w0, [x1, #32]
   863e4:	39409023 	ldrb	w3, [x1, #36]
   863e8:	350000a3 	cbnz	w3, 863fc <_ZN13effect_looper7channel4playEv+0x2c>
   863ec:	f9400c21 	ldr	x1, [x1, #24]
   863f0:	f9400021 	ldr	x1, [x1]
   863f4:	bc605821 	ldr	s1, [x1, w0, uxtw #2]
   863f8:	1e212800 	fadd	s0, s0, s1
   863fc:	f9400842 	ldr	x2, [x2, #16]
   86400:	b4000202 	cbz	x2, 86440 <_ZN13effect_looper7channel4playEv+0x70>
   86404:	f9400041 	ldr	x1, [x2]
   86408:	b9402020 	ldr	w0, [x1, #32]
   8640c:	11000400 	add	w0, w0, #0x1
   86410:	7103fc1f 	cmp	w0, #0xff
   86414:	54fffe69 	b.ls	863e0 <_ZN13effect_looper7channel4playEv+0x10>  // b.plast
   86418:	f9400c24 	ldr	x4, [x1, #24]
   8641c:	52800000 	mov	w0, #0x0                   	// #0
   86420:	f9400884 	ldr	x4, [x4, #16]
   86424:	f9000c24 	str	x4, [x1, #24]
   86428:	b900203f 	str	wzr, [x1, #32]
   8642c:	b5fffdc4 	cbnz	x4, 863e4 <_ZN13effect_looper7channel4playEv+0x14>
   86430:	f9400824 	ldr	x4, [x1, #16]
   86434:	f9400084 	ldr	x4, [x4]
   86438:	f9000c24 	str	x4, [x1, #24]
   8643c:	17ffffea 	b	863e4 <_ZN13effect_looper7channel4playEv+0x14>
   86440:	d65f03c0 	ret
   86444:	d503201f 	nop
   86448:	d503201f 	nop
   8644c:	d503201f 	nop

0000000000086450 <_ZN13effect_looper7channel6recordEf>:
   86450:	a9bd7bfd 	stp	x29, x30, [sp, #-48]!
   86454:	910003fd 	mov	x29, sp
   86458:	f9401000 	ldr	x0, [x0, #32]
   8645c:	f9000bf3 	str	x19, [sp, #16]
   86460:	f9400013 	ldr	x19, [x0]
   86464:	b9402260 	ldr	w0, [x19, #32]
   86468:	11000400 	add	w0, w0, #0x1
   8646c:	b9002260 	str	w0, [x19, #32]
   86470:	7103fc1f 	cmp	w0, #0xff
   86474:	540000e8 	b.hi	86490 <_ZN13effect_looper7channel6recordEf+0x40>  // b.pmore
   86478:	f9400e61 	ldr	x1, [x19, #24]
   8647c:	f9400bf3 	ldr	x19, [sp, #16]
   86480:	f9400021 	ldr	x1, [x1]
   86484:	bc205820 	str	s0, [x1, w0, uxtw #2]
   86488:	a8c37bfd 	ldp	x29, x30, [sp], #48
   8648c:	d65f03c0 	ret
   86490:	f9400660 	ldr	x0, [x19, #8]
   86494:	b900227f 	str	wzr, [x19, #32]
   86498:	bd002fa0 	str	s0, [x29, #44]
   8649c:	b4000240 	cbz	x0, 864e4 <_ZN13effect_looper7channel6recordEf+0x94>
   864a0:	d2800300 	mov	x0, #0x18                  	// #24
   864a4:	97ffecdb 	bl	81810 <_Znwm>
   864a8:	f9400661 	ldr	x1, [x19, #8]
   864ac:	a900041f 	stp	xzr, x1, [x0]
   864b0:	f900081f 	str	xzr, [x0, #16]
   864b4:	bd402fa0 	ldr	s0, [x29, #44]
   864b8:	f9000820 	str	x0, [x1, #16]
   864bc:	f9000660 	str	x0, [x19, #8]
   864c0:	f9400e61 	ldr	x1, [x19, #24]
   864c4:	b9402260 	ldr	w0, [x19, #32]
   864c8:	f9400821 	ldr	x1, [x1, #16]
   864cc:	f9000e61 	str	x1, [x19, #24]
   864d0:	f9400bf3 	ldr	x19, [sp, #16]
   864d4:	f9400021 	ldr	x1, [x1]
   864d8:	bc205820 	str	s0, [x1, w0, uxtw #2]
   864dc:	a8c37bfd 	ldp	x29, x30, [sp], #48
   864e0:	d65f03c0 	ret
   864e4:	d2800300 	mov	x0, #0x18                  	// #24
   864e8:	97ffecca 	bl	81810 <_Znwm>
   864ec:	a9007c1f 	stp	xzr, xzr, [x0]
   864f0:	f900081f 	str	xzr, [x0, #16]
   864f4:	bd402fa0 	ldr	s0, [x29, #44]
   864f8:	a9000260 	stp	x0, x0, [x19]
   864fc:	17fffff1 	b	864c0 <_ZN13effect_looper7channel6recordEf+0x70>

0000000000086500 <_ZN13effect_looper7channel3dubEf>:
   86500:	f9401000 	ldr	x0, [x0, #32]
   86504:	f9400000 	ldr	x0, [x0]
   86508:	f9400c02 	ldr	x2, [x0, #24]
   8650c:	b9402001 	ldr	w1, [x0, #32]
   86510:	f9400040 	ldr	x0, [x2]
   86514:	bc217800 	str	s0, [x0, x1, lsl #2]
   86518:	d65f03c0 	ret
   8651c:	d503201f 	nop

0000000000086520 <_ZN13effect_looper7channel7restartEv>:
   86520:	f9400400 	ldr	x0, [x0, #8]
   86524:	b4000100 	cbz	x0, 86544 <_ZN13effect_looper7channel7restartEv+0x24>
   86528:	f9400001 	ldr	x1, [x0]
   8652c:	f9400800 	ldr	x0, [x0, #16]
   86530:	f9400822 	ldr	x2, [x1, #16]
   86534:	f9400042 	ldr	x2, [x2]
   86538:	f9000c22 	str	x2, [x1, #24]
   8653c:	b900203f 	str	wzr, [x1, #32]
   86540:	b5ffff40 	cbnz	x0, 86528 <_ZN13effect_looper7channel7restartEv+0x8>
   86544:	d65f03c0 	ret
   86548:	d503201f 	nop
   8654c:	d503201f 	nop

0000000000086550 <_ZN13effect_looper7channel5clearEv>:
   86550:	a9be7bfd 	stp	x29, x30, [sp, #-32]!
   86554:	910003fd 	mov	x29, sp
   86558:	a90153f3 	stp	x19, x20, [sp, #16]
   8655c:	aa0003f4 	mov	x20, x0
   86560:	f9400400 	ldr	x0, [x0, #8]
   86564:	91002293 	add	x19, x20, #0x8
   86568:	b4000160 	cbz	x0, 86594 <_ZN13effect_looper7channel5clearEv+0x44>
   8656c:	f9400663 	ldr	x3, [x19, #8]
   86570:	d2800301 	mov	x1, #0x18                  	// #24
   86574:	f9400462 	ldr	x2, [x3, #8]
   86578:	b40001c2 	cbz	x2, 865b0 <_ZN13effect_looper7channel5clearEv+0x60>
   8657c:	f900085f 	str	xzr, [x2, #16]
   86580:	f9000662 	str	x2, [x19, #8]
   86584:	91002293 	add	x19, x20, #0x8
   86588:	97ffecb2 	bl	81850 <_ZdlPvm>
   8658c:	f9400680 	ldr	x0, [x20, #8]
   86590:	b5fffee0 	cbnz	x0, 8656c <_ZN13effect_looper7channel5clearEv+0x1c>
   86594:	f9400e80 	ldr	x0, [x20, #24]
   86598:	f9400000 	ldr	x0, [x0]
   8659c:	b900029f 	str	wzr, [x20]
   865a0:	f9001280 	str	x0, [x20, #32]
   865a4:	a94153f3 	ldp	x19, x20, [sp, #16]
   865a8:	a8c27bfd 	ldp	x29, x30, [sp], #32
   865ac:	d65f03c0 	ret
   865b0:	aa0303e0 	mov	x0, x3
   865b4:	d2800301 	mov	x1, #0x18                  	// #24
   865b8:	97ffeca6 	bl	81850 <_ZdlPvm>
   865bc:	a9007e7f 	stp	xzr, xzr, [x19]
   865c0:	f9400e80 	ldr	x0, [x20, #24]
   865c4:	f9400000 	ldr	x0, [x0]
   865c8:	b900029f 	str	wzr, [x20]
   865cc:	f9001280 	str	x0, [x20, #32]
   865d0:	a94153f3 	ldp	x19, x20, [sp, #16]
   865d4:	a8c27bfd 	ldp	x29, x30, [sp], #32
   865d8:	d65f03c0 	ret
   865dc:	d503201f 	nop

00000000000865e0 <_ZN13effect_looper7channel21layer_on_active_trackEv>:
   865e0:	a9bd7bfd 	stp	x29, x30, [sp, #-48]!
   865e4:	910003fd 	mov	x29, sp
   865e8:	a9025bf5 	stp	x21, x22, [sp, #32]
   865ec:	aa0003f6 	mov	x22, x0
   865f0:	a90153f3 	stp	x19, x20, [sp, #16]
   865f4:	d2800500 	mov	x0, #0x28                  	// #40
   865f8:	97ffec86 	bl	81810 <_Znwm>
   865fc:	a9007c1f 	stp	xzr, xzr, [x0]
   86600:	b94002d5 	ldr	w21, [x22]
   86604:	aa0003f3 	mov	x19, x0
   86608:	f9000800 	str	x0, [x0, #16]
   8660c:	f9000c1f 	str	xzr, [x0, #24]
   86610:	b900201f 	str	wzr, [x0, #32]
   86614:	34000315 	cbz	w21, 86674 <_ZN13effect_looper7channel21layer_on_active_trackEv+0x94>
   86618:	d2800001 	mov	x1, #0x0                   	// #0
   8661c:	52800014 	mov	w20, #0x0                   	// #0
   86620:	1400000b 	b	8664c <_ZN13effect_looper7channel21layer_on_active_trackEv+0x6c>
   86624:	97ffec7b 	bl	81810 <_Znwm>
   86628:	aa0003e1 	mov	x1, x0
   8662c:	f9400660 	ldr	x0, [x19, #8]
   86630:	11000694 	add	w20, w20, #0x1
   86634:	6b1402bf 	cmp	w21, w20
   86638:	a900003f 	stp	xzr, x0, [x1]
   8663c:	f900083f 	str	xzr, [x1, #16]
   86640:	f9000801 	str	x1, [x0, #16]
   86644:	f9000661 	str	x1, [x19, #8]
   86648:	54000160 	b.eq	86674 <_ZN13effect_looper7channel21layer_on_active_trackEv+0x94>  // b.none
   8664c:	d2800300 	mov	x0, #0x18                  	// #24
   86650:	b5fffea1 	cbnz	x1, 86624 <_ZN13effect_looper7channel21layer_on_active_trackEv+0x44>
   86654:	97ffec6f 	bl	81810 <_Znwm>
   86658:	a9007c1f 	stp	xzr, xzr, [x0]
   8665c:	f900081f 	str	xzr, [x0, #16]
   86660:	11000694 	add	w20, w20, #0x1
   86664:	a9000260 	stp	x0, x0, [x19]
   86668:	aa0003e1 	mov	x1, x0
   8666c:	6b1402bf 	cmp	w21, w20
   86670:	54fffee1 	b.ne	8664c <_ZN13effect_looper7channel21layer_on_active_trackEv+0x6c>  // b.any
   86674:	910022d4 	add	x20, x22, #0x8
   86678:	f9400680 	ldr	x0, [x20, #8]
   8667c:	b4000180 	cbz	x0, 866ac <_ZN13effect_looper7channel21layer_on_active_trackEv+0xcc>
   86680:	d2800300 	mov	x0, #0x18                  	// #24
   86684:	97ffec63 	bl	81810 <_Znwm>
   86688:	f9400681 	ldr	x1, [x20, #8]
   8668c:	a9000413 	stp	x19, x1, [x0]
   86690:	f900081f 	str	xzr, [x0, #16]
   86694:	f9000820 	str	x0, [x1, #16]
   86698:	f9000680 	str	x0, [x20, #8]
   8669c:	a94153f3 	ldp	x19, x20, [sp, #16]
   866a0:	a9425bf5 	ldp	x21, x22, [sp, #32]
   866a4:	a8c37bfd 	ldp	x29, x30, [sp], #48
   866a8:	d65f03c0 	ret
   866ac:	d2800300 	mov	x0, #0x18                  	// #24
   866b0:	97ffec58 	bl	81810 <_Znwm>
   866b4:	f90006c0 	str	x0, [x22, #8]
   866b8:	a9007c13 	stp	x19, xzr, [x0]
   866bc:	f9000680 	str	x0, [x20, #8]
   866c0:	f900081f 	str	xzr, [x0, #16]
   866c4:	a94153f3 	ldp	x19, x20, [sp, #16]
   866c8:	a9425bf5 	ldp	x21, x22, [sp, #32]
   866cc:	a8c37bfd 	ldp	x29, x30, [sp], #48
   866d0:	d65f03c0 	ret
   866d4:	d503201f 	nop
   866d8:	d503201f 	nop
   866dc:	d503201f 	nop

00000000000866e0 <_ZN13effect_looper7channel19remove_active_trackEv>:
   866e0:	a9be7bfd 	stp	x29, x30, [sp, #-32]!
   866e4:	91006003 	add	x3, x0, #0x18
   866e8:	910003fd 	mov	x29, sp
   866ec:	f9400462 	ldr	x2, [x3, #8]
   866f0:	f9000bf3 	str	x19, [sp, #16]
   866f4:	f9400c13 	ldr	x19, [x0, #24]
   866f8:	f9400260 	ldr	x0, [x19]
   866fc:	eb00005f 	cmp	x2, x0
   86700:	540003c0 	b.eq	86778 <_ZN13effect_looper7channel19remove_active_trackEv+0x98>  // b.none
   86704:	f9400661 	ldr	x1, [x19, #8]
   86708:	f9400444 	ldr	x4, [x2, #8]
   8670c:	eb01005f 	cmp	x2, x1
   86710:	54000180 	b.eq	86740 <_ZN13effect_looper7channel19remove_active_trackEv+0x60>  // b.none
   86714:	f9400840 	ldr	x0, [x2, #16]
   86718:	d2800301 	mov	x1, #0x18                  	// #24
   8671c:	f9400bf3 	ldr	x19, [sp, #16]
   86720:	f9000880 	str	x0, [x4, #16]
   86724:	aa0203e0 	mov	x0, x2
   86728:	f9400845 	ldr	x5, [x2, #16]
   8672c:	f90004a4 	str	x4, [x5, #8]
   86730:	f9400442 	ldr	x2, [x2, #8]
   86734:	f9000462 	str	x2, [x3, #8]
   86738:	a8c27bfd 	ldp	x29, x30, [sp], #32
   8673c:	17ffec45 	b	81850 <_ZdlPvm>
   86740:	b40000e4 	cbz	x4, 8675c <_ZN13effect_looper7channel19remove_active_trackEv+0x7c>
   86744:	f900089f 	str	xzr, [x4, #16]
   86748:	d2800301 	mov	x1, #0x18                  	// #24
   8674c:	f9000664 	str	x4, [x19, #8]
   86750:	f9400bf3 	ldr	x19, [sp, #16]
   86754:	a8c27bfd 	ldp	x29, x30, [sp], #32
   86758:	17ffec3e 	b	81850 <_ZdlPvm>
   8675c:	d2800301 	mov	x1, #0x18                  	// #24
   86760:	aa0203e0 	mov	x0, x2
   86764:	97ffec3b 	bl	81850 <_ZdlPvm>
   86768:	a9007e7f 	stp	xzr, xzr, [x19]
   8676c:	f9400bf3 	ldr	x19, [sp, #16]
   86770:	a8c27bfd 	ldp	x29, x30, [sp], #32
   86774:	d65f03c0 	ret
   86778:	f9400840 	ldr	x0, [x2, #16]
   8677c:	b4ffff00 	cbz	x0, 8675c <_ZN13effect_looper7channel19remove_active_trackEv+0x7c>
   86780:	f900041f 	str	xzr, [x0, #8]
   86784:	d2800301 	mov	x1, #0x18                  	// #24
   86788:	f9000260 	str	x0, [x19]
   8678c:	aa0203e0 	mov	x0, x2
   86790:	f9400bf3 	ldr	x19, [sp, #16]
   86794:	a8c27bfd 	ldp	x29, x30, [sp], #32
   86798:	17ffec2e 	b	81850 <_ZdlPvm>
   8679c:	d503201f 	nop

00000000000867a0 <_ZN13effect_looper7channel5trackC1Ej>:
   867a0:	a9007c1f 	stp	xzr, xzr, [x0]
   867a4:	a9017c00 	stp	x0, xzr, [x0, #16]
   867a8:	b900201f 	str	wzr, [x0, #32]
   867ac:	34000441 	cbz	w1, 86834 <_ZN13effect_looper7channel5trackC1Ej+0x94>
   867b0:	a9bd7bfd 	stp	x29, x30, [sp, #-48]!
   867b4:	d2800002 	mov	x2, #0x0                   	// #0
   867b8:	910003fd 	mov	x29, sp
   867bc:	a90153f3 	stp	x19, x20, [sp, #16]
   867c0:	aa0003f3 	mov	x19, x0
   867c4:	f90013f5 	str	x21, [sp, #32]
   867c8:	52800014 	mov	w20, #0x0                   	// #0
   867cc:	2a0103f5 	mov	w21, w1
   867d0:	1400000b 	b	867fc <_ZN13effect_looper7channel5trackC1Ej+0x5c>
   867d4:	97ffec0f 	bl	81810 <_Znwm>
   867d8:	aa0003e2 	mov	x2, x0
   867dc:	f9400660 	ldr	x0, [x19, #8]
   867e0:	11000694 	add	w20, w20, #0x1
   867e4:	6b1402bf 	cmp	w21, w20
   867e8:	a900005f 	stp	xzr, x0, [x2]
   867ec:	f900085f 	str	xzr, [x2, #16]
   867f0:	f9000802 	str	x2, [x0, #16]
   867f4:	f9000662 	str	x2, [x19, #8]
   867f8:	54000160 	b.eq	86824 <_ZN13effect_looper7channel5trackC1Ej+0x84>  // b.none
   867fc:	d2800300 	mov	x0, #0x18                  	// #24
   86800:	b5fffea2 	cbnz	x2, 867d4 <_ZN13effect_looper7channel5trackC1Ej+0x34>
   86804:	97ffec03 	bl	81810 <_Znwm>
   86808:	a9007c1f 	stp	xzr, xzr, [x0]
   8680c:	f900081f 	str	xzr, [x0, #16]
   86810:	11000694 	add	w20, w20, #0x1
   86814:	a9000260 	stp	x0, x0, [x19]
   86818:	aa0003e2 	mov	x2, x0
   8681c:	6b1402bf 	cmp	w21, w20
   86820:	54fffee1 	b.ne	867fc <_ZN13effect_looper7channel5trackC1Ej+0x5c>  // b.any
   86824:	a94153f3 	ldp	x19, x20, [sp, #16]
   86828:	f94013f5 	ldr	x21, [sp, #32]
   8682c:	a8c37bfd 	ldp	x29, x30, [sp], #48
   86830:	d65f03c0 	ret
   86834:	d65f03c0 	ret
   86838:	d503201f 	nop
   8683c:	d503201f 	nop

0000000000086840 <_ZN13effect_looper7channel5track13restart_trackEv>:
   86840:	f9400801 	ldr	x1, [x0, #16]
   86844:	f9400021 	ldr	x1, [x1]
   86848:	f9000c01 	str	x1, [x0, #24]
   8684c:	b900201f 	str	wzr, [x0, #32]
   86850:	d65f03c0 	ret
   86854:	d503201f 	nop
   86858:	d503201f 	nop
   8685c:	d503201f 	nop

0000000000086860 <_ZN13effect_looper7channel5track13to_next_frameEv>:
   86860:	b9402001 	ldr	w1, [x0, #32]
   86864:	11000421 	add	w1, w1, #0x1
   86868:	7103fc3f 	cmp	w1, #0xff
   8686c:	54000109 	b.ls	8688c <_ZN13effect_looper7channel5track13to_next_frameEv+0x2c>  // b.plast
   86870:	f9400c02 	ldr	x2, [x0, #24]
   86874:	91004001 	add	x1, x0, #0x10
   86878:	f9400842 	ldr	x2, [x2, #16]
   8687c:	f9000c02 	str	x2, [x0, #24]
   86880:	b900201f 	str	wzr, [x0, #32]
   86884:	b4000082 	cbz	x2, 86894 <_ZN13effect_looper7channel5track13to_next_frameEv+0x34>
   86888:	d65f03c0 	ret
   8688c:	b9002001 	str	w1, [x0, #32]
   86890:	d65f03c0 	ret
   86894:	f9400800 	ldr	x0, [x0, #16]
   86898:	f9400000 	ldr	x0, [x0]
   8689c:	f9000420 	str	x0, [x1, #8]
   868a0:	d65f03c0 	ret
   868a4:	d503201f 	nop
   868a8:	d503201f 	nop
   868ac:	d503201f 	nop

00000000000868b0 <_ZN13effect_looper7channel5track17get_current_frameEv>:
   868b0:	f9400c02 	ldr	x2, [x0, #24]
   868b4:	b9402001 	ldr	w1, [x0, #32]
   868b8:	f9400040 	ldr	x0, [x2]
   868bc:	bc617800 	ldr	s0, [x0, x1, lsl #2]
   868c0:	d65f03c0 	ret
   868c4:	d503201f 	nop
   868c8:	d503201f 	nop
   868cc:	d503201f 	nop

00000000000868d0 <_ZN13effect_looper7channel5track17record_next_frameEfPj>:
   868d0:	a9bd7bfd 	stp	x29, x30, [sp, #-48]!
   868d4:	910003fd 	mov	x29, sp
   868d8:	f9000bf3 	str	x19, [sp, #16]
   868dc:	aa0003f3 	mov	x19, x0
   868e0:	b9402000 	ldr	w0, [x0, #32]
   868e4:	11000400 	add	w0, w0, #0x1
   868e8:	b9002260 	str	w0, [x19, #32]
   868ec:	7103fc1f 	cmp	w0, #0xff
   868f0:	540000e8 	b.hi	8690c <_ZN13effect_looper7channel5track17record_next_frameEfPj+0x3c>  // b.pmore
   868f4:	f9400e61 	ldr	x1, [x19, #24]
   868f8:	f9400bf3 	ldr	x19, [sp, #16]
   868fc:	f9400021 	ldr	x1, [x1]
   86900:	bc205820 	str	s0, [x1, w0, uxtw #2]
   86904:	a8c37bfd 	ldp	x29, x30, [sp], #48
   86908:	d65f03c0 	ret
   8690c:	f9400660 	ldr	x0, [x19, #8]
   86910:	b900227f 	str	wzr, [x19, #32]
   86914:	bd002fa0 	str	s0, [x29, #44]
   86918:	b4000240 	cbz	x0, 86960 <_ZN13effect_looper7channel5track17record_next_frameEfPj+0x90>
   8691c:	d2800300 	mov	x0, #0x18                  	// #24
   86920:	97ffebbc 	bl	81810 <_Znwm>
   86924:	f9400661 	ldr	x1, [x19, #8]
   86928:	a900041f 	stp	xzr, x1, [x0]
   8692c:	f900081f 	str	xzr, [x0, #16]
   86930:	bd402fa0 	ldr	s0, [x29, #44]
   86934:	f9000820 	str	x0, [x1, #16]
   86938:	f9000660 	str	x0, [x19, #8]
   8693c:	f9400e61 	ldr	x1, [x19, #24]
   86940:	b9402260 	ldr	w0, [x19, #32]
   86944:	f9400821 	ldr	x1, [x1, #16]
   86948:	f9000e61 	str	x1, [x19, #24]
   8694c:	f9400bf3 	ldr	x19, [sp, #16]
   86950:	f9400021 	ldr	x1, [x1]
   86954:	bc205820 	str	s0, [x1, w0, uxtw #2]
   86958:	a8c37bfd 	ldp	x29, x30, [sp], #48
   8695c:	d65f03c0 	ret
   86960:	d2800300 	mov	x0, #0x18                  	// #24
   86964:	97ffebab 	bl	81810 <_Znwm>
   86968:	bd402fa0 	ldr	s0, [x29, #44]
   8696c:	a9007c1f 	stp	xzr, xzr, [x0]
   86970:	f900081f 	str	xzr, [x0, #16]
   86974:	a9000260 	stp	x0, x0, [x19]
   86978:	17fffff1 	b	8693c <_ZN13effect_looper7channel5track17record_next_frameEfPj+0x6c>
   8697c:	d503201f 	nop

0000000000086980 <_ZN13effect_looper7channel5track20update_current_frameEf>:
   86980:	f9400c02 	ldr	x2, [x0, #24]
   86984:	b9402001 	ldr	w1, [x0, #32]
   86988:	f9400040 	ldr	x0, [x2]
   8698c:	bc217800 	str	s0, [x0, x1, lsl #2]
   86990:	d65f03c0 	ret
	...

00000000000869a0 <_ZN13effect_source7processEv>:
   869a0:	a9460001 	ldp	x1, x0, [x0, #96]
   869a4:	b9400021 	ldr	w1, [x1]
   869a8:	1e620020 	scvtf	d0, w1
   869ac:	14000219 	b	87210 <_ZN6output12update_frameEd>

00000000000869b0 <_ZN13effect_sourceD1Ev>:
   869b0:	a9be7bfd 	stp	x29, x30, [sp, #-32]!
   869b4:	f0000021 	adrp	x1, 8d000 <_ZN4font9monospaceE+0x5760>
   869b8:	91378021 	add	x1, x1, #0xde0
   869bc:	910003fd 	mov	x29, sp
   869c0:	f9000bf3 	str	x19, [sp, #16]
   869c4:	aa0003f3 	mov	x19, x0
   869c8:	f9403400 	ldr	x0, [x0, #104]
   869cc:	f9000261 	str	x1, [x19]
   869d0:	b4000080 	cbz	x0, 869e0 <_ZN13effect_sourceD1Ev+0x30>
   869d4:	f9400001 	ldr	x1, [x0]
   869d8:	f9400421 	ldr	x1, [x1, #8]
   869dc:	d63f0020 	blr	x1
   869e0:	aa1303e0 	mov	x0, x19
   869e4:	f9400bf3 	ldr	x19, [sp, #16]
   869e8:	a8c27bfd 	ldp	x29, x30, [sp], #32
   869ec:	17fffba1 	b	85870 <_ZN6effectD1Ev>

00000000000869f0 <_ZN13effect_sourceD0Ev>:
   869f0:	a9be7bfd 	stp	x29, x30, [sp, #-32]!
   869f4:	f0000021 	adrp	x1, 8d000 <_ZN4font9monospaceE+0x5760>
   869f8:	91378021 	add	x1, x1, #0xde0
   869fc:	910003fd 	mov	x29, sp
   86a00:	f9000bf3 	str	x19, [sp, #16]
   86a04:	aa0003f3 	mov	x19, x0
   86a08:	f9403400 	ldr	x0, [x0, #104]
   86a0c:	f9000261 	str	x1, [x19]
   86a10:	b4000080 	cbz	x0, 86a20 <_ZN13effect_sourceD0Ev+0x30>
   86a14:	f9400001 	ldr	x1, [x0]
   86a18:	f9400421 	ldr	x1, [x1, #8]
   86a1c:	d63f0020 	blr	x1
   86a20:	aa1303e0 	mov	x0, x19
   86a24:	97fffb93 	bl	85870 <_ZN6effectD1Ev>
   86a28:	aa1303e0 	mov	x0, x19
   86a2c:	f9400bf3 	ldr	x19, [sp, #16]
   86a30:	a8c27bfd 	ldp	x29, x30, [sp], #32
   86a34:	d2800e01 	mov	x1, #0x70                  	// #112
   86a38:	17ffeb86 	b	81850 <_ZdlPvm>
   86a3c:	d503201f 	nop

0000000000086a40 <_ZN13effect_sourceC1EPi9rectangle5color>:
   86a40:	aa0203e4 	mov	x4, x2
   86a44:	a9bb7bfd 	stp	x29, x30, [sp, #-80]!
   86a48:	910003fd 	mov	x29, sp
   86a4c:	3940006a 	ldrb	w10, [x3]
   86a50:	9100e3a2 	add	x2, x29, #0x38
   86a54:	39400469 	ldrb	w9, [x3, #1]
   86a58:	39400868 	ldrb	w8, [x3, #2]
   86a5c:	29401887 	ldp	w7, w6, [x4]
   86a60:	a90153f3 	stp	x19, x20, [sp, #16]
   86a64:	29411085 	ldp	w5, w4, [x4, #8]
   86a68:	aa0103f4 	mov	x20, x1
   86a6c:	39400c63 	ldrb	w3, [x3, #3]
   86a70:	910103a1 	add	x1, x29, #0x40
   86a74:	3900e3aa 	strb	w10, [x29, #56]
   86a78:	aa0003f3 	mov	x19, x0
   86a7c:	3900e7a9 	strb	w9, [x29, #57]
   86a80:	3900eba8 	strb	w8, [x29, #58]
   86a84:	3900efa3 	strb	w3, [x29, #59]
   86a88:	29081ba7 	stp	w7, w6, [x29, #64]
   86a8c:	290913a5 	stp	w5, w4, [x29, #72]
   86a90:	97fffb54 	bl	857e0 <_ZN6effectC1E9rectangle5color>
   86a94:	9100e3a0 	add	x0, x29, #0x38
   86a98:	97fff036 	bl	82b70 <_ZN5colorD1Ev>
   86a9c:	910103a0 	add	x0, x29, #0x40
   86aa0:	97ffe970 	bl	81060 <_ZN9rectangleD1Ev>
   86aa4:	5c000461 	ldr	d1, 86b30 <_ZN13effect_sourceC1EPi9rectangle5color+0xf0>
   86aa8:	f0000020 	adrp	x0, 8d000 <_ZN4font9monospaceE+0x5760>
   86aac:	91378000 	add	x0, x0, #0xde0
   86ab0:	f9000260 	str	x0, [x19]
   86ab4:	5c000420 	ldr	d0, 86b38 <_ZN13effect_sourceC1EPi9rectangle5color+0xf8>
   86ab8:	9100e3a2 	add	x2, x29, #0x38
   86abc:	f9003274 	str	x20, [x19, #96]
   86ac0:	9100c3a1 	add	x1, x29, #0x30
   86ac4:	910103a0 	add	x0, x29, #0x40
   86ac8:	6d0303a1 	stp	d1, d0, [x29, #48]
   86acc:	97ffe959 	bl	81030 <_ZN9rectangleC1E6vectorILj2EjES1_>
   86ad0:	12800004 	mov	w4, #0xffffffff            	// #-1
   86ad4:	2a0403e2 	mov	w2, w4
   86ad8:	52800003 	mov	w3, #0x0                   	// #0
   86adc:	52800001 	mov	w1, #0x0                   	// #0
   86ae0:	9100a3a0 	add	x0, x29, #0x28
   86ae4:	97fff01b 	bl	82b50 <_ZN5colorC1Ehhhh>
   86ae8:	d2800800 	mov	x0, #0x40                  	// #64
   86aec:	97ffeb49 	bl	81810 <_Znwm>
   86af0:	9100a3a2 	add	x2, x29, #0x28
   86af4:	910103a1 	add	x1, x29, #0x40
   86af8:	aa0003f4 	mov	x20, x0
   86afc:	940001a1 	bl	87180 <_ZN6outputC1E9rectangle5color>
   86b00:	f9003674 	str	x20, [x19, #104]
   86b04:	9100a3a0 	add	x0, x29, #0x28
   86b08:	97fff01a 	bl	82b70 <_ZN5colorD1Ev>
   86b0c:	910103a0 	add	x0, x29, #0x40
   86b10:	97ffe954 	bl	81060 <_ZN9rectangleD1Ev>
   86b14:	f9403661 	ldr	x1, [x19, #104]
   86b18:	aa1303e0 	mov	x0, x19
   86b1c:	97fffc09 	bl	85b40 <_ZN6effect10add_outputEP6output>
   86b20:	a94153f3 	ldp	x19, x20, [sp, #16]
   86b24:	a8c57bfd 	ldp	x29, x30, [sp], #80
   86b28:	d65f03c0 	ret
   86b2c:	d503201f 	nop
   86b30:	0000000f 	.word	0x0000000f
   86b34:	00000014 	.word	0x00000014
   86b38:	0000001e 	.word	0x0000001e
   86b3c:	00000028 	.word	0x00000028

0000000000086b40 <_ZN11effect_sink7processEv>:
   86b40:	a9be7bfd 	stp	x29, x30, [sp, #-32]!
   86b44:	910003fd 	mov	x29, sp
   86b48:	f9000bf3 	str	x19, [sp, #16]
   86b4c:	aa0003f3 	mov	x19, x0
   86b50:	f9403400 	ldr	x0, [x0, #104]
   86b54:	97fff9f7 	bl	85330 <_ZN5input9get_frameEv>
   86b58:	1e780001 	fcvtzs	w1, d0
   86b5c:	f9403260 	ldr	x0, [x19, #96]
   86b60:	f9400bf3 	ldr	x19, [sp, #16]
   86b64:	b9000001 	str	w1, [x0]
   86b68:	a8c27bfd 	ldp	x29, x30, [sp], #32
   86b6c:	d65f03c0 	ret

0000000000086b70 <_ZN11effect_sinkD1Ev>:
   86b70:	a9be7bfd 	stp	x29, x30, [sp, #-32]!
   86b74:	f0000021 	adrp	x1, 8d000 <_ZN4font9monospaceE+0x5760>
   86b78:	91384021 	add	x1, x1, #0xe10
   86b7c:	910003fd 	mov	x29, sp
   86b80:	f9000bf3 	str	x19, [sp, #16]
   86b84:	aa0003f3 	mov	x19, x0
   86b88:	f9403400 	ldr	x0, [x0, #104]
   86b8c:	f9000261 	str	x1, [x19]
   86b90:	b4000080 	cbz	x0, 86ba0 <_ZN11effect_sinkD1Ev+0x30>
   86b94:	f9400001 	ldr	x1, [x0]
   86b98:	f9400421 	ldr	x1, [x1, #8]
   86b9c:	d63f0020 	blr	x1
   86ba0:	aa1303e0 	mov	x0, x19
   86ba4:	f9400bf3 	ldr	x19, [sp, #16]
   86ba8:	a8c27bfd 	ldp	x29, x30, [sp], #32
   86bac:	17fffb31 	b	85870 <_ZN6effectD1Ev>

0000000000086bb0 <_ZN11effect_sinkD0Ev>:
   86bb0:	a9be7bfd 	stp	x29, x30, [sp, #-32]!
   86bb4:	f0000021 	adrp	x1, 8d000 <_ZN4font9monospaceE+0x5760>
   86bb8:	91384021 	add	x1, x1, #0xe10
   86bbc:	910003fd 	mov	x29, sp
   86bc0:	f9000bf3 	str	x19, [sp, #16]
   86bc4:	aa0003f3 	mov	x19, x0
   86bc8:	f9403400 	ldr	x0, [x0, #104]
   86bcc:	f9000261 	str	x1, [x19]
   86bd0:	b4000080 	cbz	x0, 86be0 <_ZN11effect_sinkD0Ev+0x30>
   86bd4:	f9400001 	ldr	x1, [x0]
   86bd8:	f9400421 	ldr	x1, [x1, #8]
   86bdc:	d63f0020 	blr	x1
   86be0:	aa1303e0 	mov	x0, x19
   86be4:	97fffb23 	bl	85870 <_ZN6effectD1Ev>
   86be8:	aa1303e0 	mov	x0, x19
   86bec:	f9400bf3 	ldr	x19, [sp, #16]
   86bf0:	a8c27bfd 	ldp	x29, x30, [sp], #32
   86bf4:	d2800e01 	mov	x1, #0x70                  	// #112
   86bf8:	17ffeb16 	b	81850 <_ZdlPvm>
   86bfc:	d503201f 	nop

0000000000086c00 <_ZN11effect_sinkC1EPi9rectangle5color>:
   86c00:	aa0203e4 	mov	x4, x2
   86c04:	a9bb7bfd 	stp	x29, x30, [sp, #-80]!
   86c08:	910003fd 	mov	x29, sp
   86c0c:	3940006a 	ldrb	w10, [x3]
   86c10:	9100e3a2 	add	x2, x29, #0x38
   86c14:	39400469 	ldrb	w9, [x3, #1]
   86c18:	39400868 	ldrb	w8, [x3, #2]
   86c1c:	29401887 	ldp	w7, w6, [x4]
   86c20:	a90153f3 	stp	x19, x20, [sp, #16]
   86c24:	29411085 	ldp	w5, w4, [x4, #8]
   86c28:	aa0103f4 	mov	x20, x1
   86c2c:	39400c63 	ldrb	w3, [x3, #3]
   86c30:	910103a1 	add	x1, x29, #0x40
   86c34:	3900e3aa 	strb	w10, [x29, #56]
   86c38:	aa0003f3 	mov	x19, x0
   86c3c:	3900e7a9 	strb	w9, [x29, #57]
   86c40:	3900eba8 	strb	w8, [x29, #58]
   86c44:	3900efa3 	strb	w3, [x29, #59]
   86c48:	29081ba7 	stp	w7, w6, [x29, #64]
   86c4c:	290913a5 	stp	w5, w4, [x29, #72]
   86c50:	97fffae4 	bl	857e0 <_ZN6effectC1E9rectangle5color>
   86c54:	9100e3a0 	add	x0, x29, #0x38
   86c58:	97ffefc6 	bl	82b70 <_ZN5colorD1Ev>
   86c5c:	910103a0 	add	x0, x29, #0x40
   86c60:	97ffe900 	bl	81060 <_ZN9rectangleD1Ev>
   86c64:	5c000461 	ldr	d1, 86cf0 <_ZN11effect_sinkC1EPi9rectangle5color+0xf0>
   86c68:	f0000020 	adrp	x0, 8d000 <_ZN4font9monospaceE+0x5760>
   86c6c:	91384000 	add	x0, x0, #0xe10
   86c70:	f9000260 	str	x0, [x19]
   86c74:	5c000420 	ldr	d0, 86cf8 <_ZN11effect_sinkC1EPi9rectangle5color+0xf8>
   86c78:	9100e3a2 	add	x2, x29, #0x38
   86c7c:	f9003274 	str	x20, [x19, #96]
   86c80:	9100c3a1 	add	x1, x29, #0x30
   86c84:	910103a0 	add	x0, x29, #0x40
   86c88:	6d0303a1 	stp	d1, d0, [x29, #48]
   86c8c:	97ffe8e9 	bl	81030 <_ZN9rectangleC1E6vectorILj2EjES1_>
   86c90:	12800004 	mov	w4, #0xffffffff            	// #-1
   86c94:	2a0403e3 	mov	w3, w4
   86c98:	52800002 	mov	w2, #0x0                   	// #0
   86c9c:	52800001 	mov	w1, #0x0                   	// #0
   86ca0:	9100a3a0 	add	x0, x29, #0x28
   86ca4:	97ffefab 	bl	82b50 <_ZN5colorC1Ehhhh>
   86ca8:	d2800700 	mov	x0, #0x38                  	// #56
   86cac:	97ffead9 	bl	81810 <_Znwm>
   86cb0:	9100a3a2 	add	x2, x29, #0x28
   86cb4:	910103a1 	add	x1, x29, #0x40
   86cb8:	aa0003f4 	mov	x20, x0
   86cbc:	97fff979 	bl	852a0 <_ZN5inputC1E9rectangle5color>
   86cc0:	f9003674 	str	x20, [x19, #104]
   86cc4:	9100a3a0 	add	x0, x29, #0x28
   86cc8:	97ffefaa 	bl	82b70 <_ZN5colorD1Ev>
   86ccc:	910103a0 	add	x0, x29, #0x40
   86cd0:	97ffe8e4 	bl	81060 <_ZN9rectangleD1Ev>
   86cd4:	f9403661 	ldr	x1, [x19, #104]
   86cd8:	aa1303e0 	mov	x0, x19
   86cdc:	97fffb75 	bl	85ab0 <_ZN6effect9add_inputEP5input>
   86ce0:	a94153f3 	ldp	x19, x20, [sp, #16]
   86ce4:	a8c57bfd 	ldp	x29, x30, [sp], #80
   86ce8:	d65f03c0 	ret
   86cec:	d503201f 	nop
   86cf0:	0000000f 	.word	0x0000000f
   86cf4:	00000014 	.word	0x00000014
   86cf8:	0000001e 	.word	0x0000001e
   86cfc:	00000028 	.word	0x00000028

0000000000086d00 <_ZN13effect_chorus7processEv>:
   86d00:	a9bc7bfd 	stp	x29, x30, [sp, #-64]!
   86d04:	910003fd 	mov	x29, sp
   86d08:	a90153f3 	stp	x19, x20, [sp, #16]
   86d0c:	aa0003f3 	mov	x19, x0
   86d10:	91020014 	add	x20, x0, #0x80
   86d14:	f9403000 	ldr	x0, [x0, #96]
   86d18:	6d0227e8 	stp	d8, d9, [sp, #32]
   86d1c:	6d032fea 	stp	d10, d11, [sp, #48]
   86d20:	97fff984 	bl	85330 <_ZN5input9get_frameEv>
   86d24:	1e60400b 	fmov	d11, d0
   86d28:	f9403a60 	ldr	x0, [x19, #112]
   86d2c:	97ffef49 	bl	82a50 <_ZN13analog_button9get_valueEv>
   86d30:	1e604009 	fmov	d9, d0
   86d34:	f9403e60 	ldr	x0, [x19, #120]
   86d38:	97ffef46 	bl	82a50 <_ZN13analog_button9get_valueEv>
   86d3c:	1e60400a 	fmov	d10, d0
   86d40:	1285dbe1 	mov	w1, #0xffffd120            	// #-12000
   86d44:	aa1403e0 	mov	x0, x20
   86d48:	940001ce 	bl	87480 <_ZN12buffer_delay12get_previousEj>
   86d4c:	1e6e1001 	fmov	d1, #1.000000000000000000e+00
   86d50:	aa1403e0 	mov	x0, x20
   86d54:	1e6a3828 	fsub	d8, d1, d10
   86d58:	1e60094a 	fmul	d10, d10, d0
   86d5c:	1e693821 	fsub	d1, d1, d9
   86d60:	1e600920 	fmul	d0, d9, d0
   86d64:	1f4b2908 	fmadd	d8, d8, d11, d10
   86d68:	1f480020 	fmadd	d0, d1, d8, d0
   86d6c:	940001cd 	bl	874a0 <_ZN12buffer_delay14update_currentEd>
   86d70:	1e604100 	fmov	d0, d8
   86d74:	6d4227e8 	ldp	d8, d9, [sp, #32]
   86d78:	6d432fea 	ldp	d10, d11, [sp, #48]
   86d7c:	f9403660 	ldr	x0, [x19, #104]
   86d80:	a94153f3 	ldp	x19, x20, [sp, #16]
   86d84:	a8c47bfd 	ldp	x29, x30, [sp], #64
   86d88:	14000122 	b	87210 <_ZN6output12update_frameEd>
   86d8c:	d503201f 	nop

0000000000086d90 <_ZN13effect_chorusC1E9rectangle5color>:
   86d90:	aa0203e3 	mov	x3, x2
   86d94:	aa0103e4 	mov	x4, x1
   86d98:	a9ba7bfd 	stp	x29, x30, [sp, #-96]!
   86d9c:	910003fd 	mov	x29, sp
   86da0:	3940006a 	ldrb	w10, [x3]
   86da4:	910143a1 	add	x1, x29, #0x50
   86da8:	39400469 	ldrb	w9, [x3, #1]
   86dac:	910123a2 	add	x2, x29, #0x48
   86db0:	39400868 	ldrb	w8, [x3, #2]
   86db4:	29401887 	ldp	w7, w6, [x4]
   86db8:	390123aa 	strb	w10, [x29, #72]
   86dbc:	29411085 	ldp	w5, w4, [x4, #8]
   86dc0:	390127a9 	strb	w9, [x29, #73]
   86dc4:	39400c63 	ldrb	w3, [x3, #3]
   86dc8:	39012ba8 	strb	w8, [x29, #74]
   86dcc:	39012fa3 	strb	w3, [x29, #75]
   86dd0:	290a1ba7 	stp	w7, w6, [x29, #80]
   86dd4:	290b13a5 	stp	w5, w4, [x29, #88]
   86dd8:	a90153f3 	stp	x19, x20, [sp, #16]
   86ddc:	aa0003f3 	mov	x19, x0
   86de0:	fd0013e8 	str	d8, [sp, #32]
   86de4:	97fffa7f 	bl	857e0 <_ZN6effectC1E9rectangle5color>
   86de8:	910123a0 	add	x0, x29, #0x48
   86dec:	97ffef61 	bl	82b70 <_ZN5colorD1Ev>
   86df0:	910143a0 	add	x0, x29, #0x50
   86df4:	97ffe89b 	bl	81060 <_ZN9rectangleD1Ev>
   86df8:	aa1303e0 	mov	x0, x19
   86dfc:	f0000022 	adrp	x2, 8d000 <_ZN4font9monospaceE+0x5760>
   86e00:	91390042 	add	x2, x2, #0xe40
   86e04:	5285dc01 	mov	w1, #0x2ee0                	// #12000
   86e08:	f8080402 	str	x2, [x0], #128
   86e0c:	94000191 	bl	87450 <_ZN12buffer_delayC1Ej>
   86e10:	5c000ec8 	ldr	d8, 86fe8 <_ZN13effect_chorusC1E9rectangle5color+0x258>
   86e14:	910123a2 	add	x2, x29, #0x48
   86e18:	5c000e40 	ldr	d0, 86fe0 <_ZN13effect_chorusC1E9rectangle5color+0x250>
   86e1c:	910103a1 	add	x1, x29, #0x40
   86e20:	910143a0 	add	x0, x29, #0x50
   86e24:	6d0423a0 	stp	d0, d8, [x29, #64]
   86e28:	97ffe882 	bl	81030 <_ZN9rectangleC1E6vectorILj2EjES1_>
   86e2c:	12800004 	mov	w4, #0xffffffff            	// #-1
   86e30:	2a0403e1 	mov	w1, w4
   86e34:	52800003 	mov	w3, #0x0                   	// #0
   86e38:	52800002 	mov	w2, #0x0                   	// #0
   86e3c:	9100e3a0 	add	x0, x29, #0x38
   86e40:	97ffef44 	bl	82b50 <_ZN5colorC1Ehhhh>
   86e44:	d2800700 	mov	x0, #0x38                  	// #56
   86e48:	97ffea72 	bl	81810 <_Znwm>
   86e4c:	9100e3a2 	add	x2, x29, #0x38
   86e50:	910143a1 	add	x1, x29, #0x50
   86e54:	aa0003f4 	mov	x20, x0
   86e58:	97fff912 	bl	852a0 <_ZN5inputC1E9rectangle5color>
   86e5c:	f9003274 	str	x20, [x19, #96]
   86e60:	9100e3a0 	add	x0, x29, #0x38
   86e64:	97ffef43 	bl	82b70 <_ZN5colorD1Ev>
   86e68:	910143a0 	add	x0, x29, #0x50
   86e6c:	97ffe87d 	bl	81060 <_ZN9rectangleD1Ev>
   86e70:	5c000c00 	ldr	d0, 86ff0 <_ZN13effect_chorusC1E9rectangle5color+0x260>
   86e74:	910123a2 	add	x2, x29, #0x48
   86e78:	910103a1 	add	x1, x29, #0x40
   86e7c:	910143a0 	add	x0, x29, #0x50
   86e80:	6d0423a0 	stp	d0, d8, [x29, #64]
   86e84:	97ffe86b 	bl	81030 <_ZN9rectangleC1E6vectorILj2EjES1_>
   86e88:	12800004 	mov	w4, #0xffffffff            	// #-1
   86e8c:	2a0403e2 	mov	w2, w4
   86e90:	52800003 	mov	w3, #0x0                   	// #0
   86e94:	52800001 	mov	w1, #0x0                   	// #0
   86e98:	9100e3a0 	add	x0, x29, #0x38
   86e9c:	97ffef2d 	bl	82b50 <_ZN5colorC1Ehhhh>
   86ea0:	d2800800 	mov	x0, #0x40                  	// #64
   86ea4:	97ffea5b 	bl	81810 <_Znwm>
   86ea8:	9100e3a2 	add	x2, x29, #0x38
   86eac:	910143a1 	add	x1, x29, #0x50
   86eb0:	aa0003f4 	mov	x20, x0
   86eb4:	940000b3 	bl	87180 <_ZN6outputC1E9rectangle5color>
   86eb8:	f9003674 	str	x20, [x19, #104]
   86ebc:	9100e3a0 	add	x0, x29, #0x38
   86ec0:	97ffef2c 	bl	82b70 <_ZN5colorD1Ev>
   86ec4:	910143a0 	add	x0, x29, #0x50
   86ec8:	97ffe866 	bl	81060 <_ZN9rectangleD1Ev>
   86ecc:	0f020600 	movi	v0.2s, #0x50
   86ed0:	910123a2 	add	x2, x29, #0x48
   86ed4:	910103a1 	add	x1, x29, #0x40
   86ed8:	910143a0 	add	x0, x29, #0x50
   86edc:	6d0423a0 	stp	d0, d8, [x29, #64]
   86ee0:	97ffe854 	bl	81030 <_ZN9rectangleC1E6vectorILj2EjES1_>
   86ee4:	12800004 	mov	w4, #0xffffffff            	// #-1
   86ee8:	2a0403e3 	mov	w3, w4
   86eec:	52800002 	mov	w2, #0x0                   	// #0
   86ef0:	52800001 	mov	w1, #0x0                   	// #0
   86ef4:	9100e3a0 	add	x0, x29, #0x38
   86ef8:	97ffef16 	bl	82b50 <_ZN5colorC1Ehhhh>
   86efc:	d2800700 	mov	x0, #0x38                  	// #56
   86f00:	97ffea44 	bl	81810 <_Znwm>
   86f04:	9100e3a2 	add	x2, x29, #0x38
   86f08:	910143a1 	add	x1, x29, #0x50
   86f0c:	aa0003f4 	mov	x20, x0
   86f10:	97ffeeb0 	bl	829d0 <_ZN13analog_buttonC1E9rectangle5color>
   86f14:	f9003a74 	str	x20, [x19, #112]
   86f18:	9100e3a0 	add	x0, x29, #0x38
   86f1c:	97ffef15 	bl	82b70 <_ZN5colorD1Ev>
   86f20:	910143a0 	add	x0, x29, #0x50
   86f24:	97ffe84f 	bl	81060 <_ZN9rectangleD1Ev>
   86f28:	5c000680 	ldr	d0, 86ff8 <_ZN13effect_chorusC1E9rectangle5color+0x268>
   86f2c:	910123a2 	add	x2, x29, #0x48
   86f30:	910103a1 	add	x1, x29, #0x40
   86f34:	910143a0 	add	x0, x29, #0x50
   86f38:	6d0423a0 	stp	d0, d8, [x29, #64]
   86f3c:	97ffe83d 	bl	81030 <_ZN9rectangleC1E6vectorILj2EjES1_>
   86f40:	12800004 	mov	w4, #0xffffffff            	// #-1
   86f44:	2a0403e3 	mov	w3, w4
   86f48:	52800002 	mov	w2, #0x0                   	// #0
   86f4c:	52800001 	mov	w1, #0x0                   	// #0
   86f50:	9100e3a0 	add	x0, x29, #0x38
   86f54:	97ffeeff 	bl	82b50 <_ZN5colorC1Ehhhh>
   86f58:	d2800700 	mov	x0, #0x38                  	// #56
   86f5c:	97ffea2d 	bl	81810 <_Znwm>
   86f60:	9100e3a2 	add	x2, x29, #0x38
   86f64:	910143a1 	add	x1, x29, #0x50
   86f68:	aa0003f4 	mov	x20, x0
   86f6c:	97ffee99 	bl	829d0 <_ZN13analog_buttonC1E9rectangle5color>
   86f70:	f9003e74 	str	x20, [x19, #120]
   86f74:	9100e3a0 	add	x0, x29, #0x38
   86f78:	97ffeefe 	bl	82b70 <_ZN5colorD1Ev>
   86f7c:	910143a0 	add	x0, x29, #0x50
   86f80:	97ffe838 	bl	81060 <_ZN9rectangleD1Ev>
   86f84:	f9403261 	ldr	x1, [x19, #96]
   86f88:	aa1303e0 	mov	x0, x19
   86f8c:	97fffac9 	bl	85ab0 <_ZN6effect9add_inputEP5input>
   86f90:	f9403661 	ldr	x1, [x19, #104]
   86f94:	aa1303e0 	mov	x0, x19
   86f98:	97fffaea 	bl	85b40 <_ZN6effect10add_outputEP6output>
   86f9c:	f9403a61 	ldr	x1, [x19, #112]
   86fa0:	aa1303e0 	mov	x0, x19
   86fa4:	97fffa9f 	bl	85a20 <_ZN6effect10add_buttonEP6button>
   86fa8:	f9403e61 	ldr	x1, [x19, #120]
   86fac:	aa1303e0 	mov	x0, x19
   86fb0:	97fffa9c 	bl	85a20 <_ZN6effect10add_buttonEP6button>
   86fb4:	f9403a60 	ldr	x0, [x19, #112]
   86fb8:	5c000240 	ldr	d0, 87000 <_ZN13effect_chorusC1E9rectangle5color+0x270>
   86fbc:	97ffeea9 	bl	82a60 <_ZN13analog_button9set_valueEd>
   86fc0:	f9403e60 	ldr	x0, [x19, #120]
   86fc4:	5c000220 	ldr	d0, 87008 <_ZN13effect_chorusC1E9rectangle5color+0x278>
   86fc8:	97ffeea6 	bl	82a60 <_ZN13analog_button9set_valueEd>
   86fcc:	a94153f3 	ldp	x19, x20, [sp, #16]
   86fd0:	fd4013e8 	ldr	d8, [sp, #32]
   86fd4:	a8c67bfd 	ldp	x29, x30, [sp], #96
   86fd8:	d65f03c0 	ret
   86fdc:	d503201f 	nop
   86fe0:	00000000 	.word	0x00000000
   86fe4:	00000078 	.word	0x00000078
   86fe8:	0000001e 	.word	0x0000001e
   86fec:	00000028 	.word	0x00000028
   86ff0:	000000aa 	.word	0x000000aa
   86ff4:	00000078 	.word	0x00000078
   86ff8:	00000050 	.word	0x00000050
   86ffc:	00000082 	.word	0x00000082
   87000:	c0000000 	.word	0xc0000000
   87004:	3feccccc 	.word	0x3feccccc
   87008:	60000000 	.word	0x60000000
   8700c:	3fe66666 	.word	0x3fe66666

0000000000087010 <_ZN13effect_chorusD1Ev>:
   87010:	a9be7bfd 	stp	x29, x30, [sp, #-32]!
   87014:	d0000021 	adrp	x1, 8d000 <_ZN4font9monospaceE+0x5760>
   87018:	91390021 	add	x1, x1, #0xe40
   8701c:	910003fd 	mov	x29, sp
   87020:	f9000bf3 	str	x19, [sp, #16]
   87024:	aa0003f3 	mov	x19, x0
   87028:	f9403000 	ldr	x0, [x0, #96]
   8702c:	f9000261 	str	x1, [x19]
   87030:	b4000080 	cbz	x0, 87040 <_ZN13effect_chorusD1Ev+0x30>
   87034:	f9400001 	ldr	x1, [x0]
   87038:	f9400421 	ldr	x1, [x1, #8]
   8703c:	d63f0020 	blr	x1
   87040:	f9403660 	ldr	x0, [x19, #104]
   87044:	b4000080 	cbz	x0, 87054 <_ZN13effect_chorusD1Ev+0x44>
   87048:	f9400001 	ldr	x1, [x0]
   8704c:	f9400421 	ldr	x1, [x1, #8]
   87050:	d63f0020 	blr	x1
   87054:	f9403a60 	ldr	x0, [x19, #112]
   87058:	b4000080 	cbz	x0, 87068 <_ZN13effect_chorusD1Ev+0x58>
   8705c:	f9400001 	ldr	x1, [x0]
   87060:	f9400421 	ldr	x1, [x1, #8]
   87064:	d63f0020 	blr	x1
   87068:	f9403e60 	ldr	x0, [x19, #120]
   8706c:	b4000080 	cbz	x0, 8707c <_ZN13effect_chorusD1Ev+0x6c>
   87070:	f9400001 	ldr	x1, [x0]
   87074:	f9400421 	ldr	x1, [x1, #8]
   87078:	d63f0020 	blr	x1
   8707c:	91020260 	add	x0, x19, #0x80
   87080:	940000e0 	bl	87400 <_ZN12buffer_delayD1Ev>
   87084:	aa1303e0 	mov	x0, x19
   87088:	f9400bf3 	ldr	x19, [sp, #16]
   8708c:	a8c27bfd 	ldp	x29, x30, [sp], #32
   87090:	17fff9f8 	b	85870 <_ZN6effectD1Ev>
   87094:	d503201f 	nop
   87098:	d503201f 	nop
   8709c:	d503201f 	nop

00000000000870a0 <_ZN13effect_chorusD0Ev>:
   870a0:	a9be7bfd 	stp	x29, x30, [sp, #-32]!
   870a4:	d0000021 	adrp	x1, 8d000 <_ZN4font9monospaceE+0x5760>
   870a8:	91390021 	add	x1, x1, #0xe40
   870ac:	910003fd 	mov	x29, sp
   870b0:	f9000bf3 	str	x19, [sp, #16]
   870b4:	aa0003f3 	mov	x19, x0
   870b8:	f9403000 	ldr	x0, [x0, #96]
   870bc:	f9000261 	str	x1, [x19]
   870c0:	b4000080 	cbz	x0, 870d0 <_ZN13effect_chorusD0Ev+0x30>
   870c4:	f9400001 	ldr	x1, [x0]
   870c8:	f9400421 	ldr	x1, [x1, #8]
   870cc:	d63f0020 	blr	x1
   870d0:	f9403660 	ldr	x0, [x19, #104]
   870d4:	b4000080 	cbz	x0, 870e4 <_ZN13effect_chorusD0Ev+0x44>
   870d8:	f9400001 	ldr	x1, [x0]
   870dc:	f9400421 	ldr	x1, [x1, #8]
   870e0:	d63f0020 	blr	x1
   870e4:	f9403a60 	ldr	x0, [x19, #112]
   870e8:	b4000080 	cbz	x0, 870f8 <_ZN13effect_chorusD0Ev+0x58>
   870ec:	f9400001 	ldr	x1, [x0]
   870f0:	f9400421 	ldr	x1, [x1, #8]
   870f4:	d63f0020 	blr	x1
   870f8:	f9403e60 	ldr	x0, [x19, #120]
   870fc:	b4000080 	cbz	x0, 8710c <_ZN13effect_chorusD0Ev+0x6c>
   87100:	f9400001 	ldr	x1, [x0]
   87104:	f9400421 	ldr	x1, [x1, #8]
   87108:	d63f0020 	blr	x1
   8710c:	91020260 	add	x0, x19, #0x80
   87110:	940000bc 	bl	87400 <_ZN12buffer_delayD1Ev>
   87114:	aa1303e0 	mov	x0, x19
   87118:	97fff9d6 	bl	85870 <_ZN6effectD1Ev>
   8711c:	aa1303e0 	mov	x0, x19
   87120:	f9400bf3 	ldr	x19, [sp, #16]
   87124:	a8c27bfd 	ldp	x29, x30, [sp], #32
   87128:	d2801401 	mov	x1, #0xa0                  	// #160
   8712c:	17ffe9c9 	b	81850 <_ZdlPvm>

0000000000087130 <_ZN6outputD1Ev>:
   87130:	d0000021 	adrp	x1, 8d000 <_ZN4font9monospaceE+0x5760>
   87134:	9139c021 	add	x1, x1, #0xe70
   87138:	f9000001 	str	x1, [x0]
   8713c:	17ffef25 	b	82dd0 <_ZN14graphic_objectD1Ev>

0000000000087140 <_ZN6outputD0Ev>:
   87140:	a9be7bfd 	stp	x29, x30, [sp, #-32]!
   87144:	d0000021 	adrp	x1, 8d000 <_ZN4font9monospaceE+0x5760>
   87148:	9139c021 	add	x1, x1, #0xe70
   8714c:	910003fd 	mov	x29, sp
   87150:	f9000bf3 	str	x19, [sp, #16]
   87154:	aa0003f3 	mov	x19, x0
   87158:	f9000001 	str	x1, [x0]
   8715c:	97ffef1d 	bl	82dd0 <_ZN14graphic_objectD1Ev>
   87160:	aa1303e0 	mov	x0, x19
   87164:	f9400bf3 	ldr	x19, [sp, #16]
   87168:	a8c27bfd 	ldp	x29, x30, [sp], #32
   8716c:	d2800801 	mov	x1, #0x40                  	// #64
   87170:	17ffe9b8 	b	81850 <_ZdlPvm>
   87174:	d503201f 	nop
   87178:	d503201f 	nop
   8717c:	d503201f 	nop

0000000000087180 <_ZN6outputC1E9rectangle5color>:
   87180:	aa0203e3 	mov	x3, x2
   87184:	aa0103e4 	mov	x4, x1
   87188:	a9bc7bfd 	stp	x29, x30, [sp, #-64]!
   8718c:	910003fd 	mov	x29, sp
   87190:	3940006a 	ldrb	w10, [x3]
   87194:	9100a3a2 	add	x2, x29, #0x28
   87198:	39400469 	ldrb	w9, [x3, #1]
   8719c:	9100c3a1 	add	x1, x29, #0x30
   871a0:	39400868 	ldrb	w8, [x3, #2]
   871a4:	29401887 	ldp	w7, w6, [x4]
   871a8:	3900a3aa 	strb	w10, [x29, #40]
   871ac:	39400c63 	ldrb	w3, [x3, #3]
   871b0:	29411085 	ldp	w5, w4, [x4, #8]
   871b4:	3900a7a9 	strb	w9, [x29, #41]
   871b8:	f9000bf3 	str	x19, [sp, #16]
   871bc:	aa0003f3 	mov	x19, x0
   871c0:	3900aba8 	strb	w8, [x29, #42]
   871c4:	3900afa3 	strb	w3, [x29, #43]
   871c8:	29061ba7 	stp	w7, w6, [x29, #48]
   871cc:	290713a5 	stp	w5, w4, [x29, #56]
   871d0:	97ffee9c 	bl	82c40 <_ZN14graphic_objectC1E9rectangle5color>
   871d4:	9100a3a0 	add	x0, x29, #0x28
   871d8:	97ffee66 	bl	82b70 <_ZN5colorD1Ev>
   871dc:	9100c3a0 	add	x0, x29, #0x30
   871e0:	97ffe7a0 	bl	81060 <_ZN9rectangleD1Ev>
   871e4:	d0000020 	adrp	x0, 8d000 <_ZN4font9monospaceE+0x5760>
   871e8:	9139c000 	add	x0, x0, #0xe70
   871ec:	f9000260 	str	x0, [x19]
   871f0:	f9400bf3 	ldr	x19, [sp, #16]
   871f4:	a8c47bfd 	ldp	x29, x30, [sp], #64
   871f8:	d65f03c0 	ret
   871fc:	d503201f 	nop

0000000000087200 <_ZN6output9get_frameEv>:
   87200:	fd401800 	ldr	d0, [x0, #48]
   87204:	d65f03c0 	ret
   87208:	d503201f 	nop
   8720c:	d503201f 	nop

0000000000087210 <_ZN6output12update_frameEd>:
   87210:	52800021 	mov	w1, #0x1                   	// #1
   87214:	fd001800 	str	d0, [x0, #48]
   87218:	3900e001 	strb	w1, [x0, #56]
   8721c:	d65f03c0 	ret

0000000000087220 <_ZN6output16invalidate_frameEv>:
   87220:	3900e01f 	strb	wzr, [x0, #56]
   87224:	d65f03c0 	ret
   87228:	d503201f 	nop
   8722c:	d503201f 	nop

0000000000087230 <_ZN6output11frame_readyEv>:
   87230:	3940e000 	ldrb	w0, [x0, #56]
   87234:	d65f03c0 	ret
   87238:	d503201f 	nop
   8723c:	d503201f 	nop

0000000000087240 <_ZN6output15draw_connectingE6vectorILj2EjE>:
   87240:	a9b87bfd 	stp	x29, x30, [sp, #-128]!
   87244:	910003fd 	mov	x29, sp
   87248:	a90153f3 	stp	x19, x20, [sp, #16]
   8724c:	910103a8 	add	x8, x29, #0x40
   87250:	a9025bf5 	stp	x21, x22, [sp, #32]
   87254:	aa0003f3 	mov	x19, x0
   87258:	aa0103f6 	mov	x22, x1
   8725c:	f9001bf7 	str	x23, [sp, #48]
   87260:	97ffeebc 	bl	82d50 <_ZN14graphic_object13get_footprintEv>
   87264:	b94043b5 	ldr	w21, [x29, #64]
   87268:	910143a8 	add	x8, x29, #0x50
   8726c:	aa1303e0 	mov	x0, x19
   87270:	97ffeeb8 	bl	82d50 <_ZN14graphic_object13get_footprintEv>
   87274:	b9405ba0 	ldr	w0, [x29, #88]
   87278:	910183a8 	add	x8, x29, #0x60
   8727c:	0b0002b5 	add	w21, w21, w0
   87280:	aa1303e0 	mov	x0, x19
   87284:	97ffeeb3 	bl	82d50 <_ZN14graphic_object13get_footprintEv>
   87288:	b94067b7 	ldr	w23, [x29, #100]
   8728c:	9101c3a8 	add	x8, x29, #0x70
   87290:	aa1303e0 	mov	x0, x19
   87294:	97ffeeaf 	bl	82d50 <_ZN14graphic_object13get_footprintEv>
   87298:	b9407fb4 	ldr	w20, [x29, #124]
   8729c:	9101c3a0 	add	x0, x29, #0x70
   872a0:	97ffe770 	bl	81060 <_ZN9rectangleD1Ev>
   872a4:	910183a0 	add	x0, x29, #0x60
   872a8:	97ffe76e 	bl	81060 <_ZN9rectangleD1Ev>
   872ac:	910143a0 	add	x0, x29, #0x50
   872b0:	97ffe76c 	bl	81060 <_ZN9rectangleD1Ev>
   872b4:	910103a0 	add	x0, x29, #0x40
   872b8:	97ffe76a 	bl	81060 <_ZN9rectangleD1Ev>
   872bc:	b9402a66 	ldr	w6, [x19, #40]
   872c0:	910143a3 	add	x3, x29, #0x50
   872c4:	294012c5 	ldp	w5, w4, [x22]
   872c8:	9101c3a2 	add	x2, x29, #0x70
   872cc:	f9401260 	ldr	x0, [x19, #32]
   872d0:	910183a1 	add	x1, x29, #0x60
   872d4:	b90053a6 	str	w6, [x29, #80]
   872d8:	0b5406f4 	add	w20, w23, w20, lsr #1
   872dc:	290c53b5 	stp	w21, w20, [x29, #96]
   872e0:	290e13a5 	stp	w5, w4, [x29, #112]
   872e4:	97ffe9ef 	bl	81aa0 <_ZN6screen9draw_lineE6vectorILj2EjES1_5color>
   872e8:	910143a0 	add	x0, x29, #0x50
   872ec:	97ffee21 	bl	82b70 <_ZN5colorD1Ev>
   872f0:	a94153f3 	ldp	x19, x20, [sp, #16]
   872f4:	a9425bf5 	ldp	x21, x22, [sp, #32]
   872f8:	f9401bf7 	ldr	x23, [sp, #48]
   872fc:	a8c87bfd 	ldp	x29, x30, [sp], #128
   87300:	d65f03c0 	ret
	...

0000000000087310 <_ZN6bufferC1Ej>:
   87310:	a9be7bfd 	stp	x29, x30, [sp, #-32]!
   87314:	910003fd 	mov	x29, sp
   87318:	f9000bf3 	str	x19, [sp, #16]
   8731c:	aa0003f3 	mov	x19, x0
   87320:	d0000020 	adrp	x0, 8d000 <_ZN4font9monospaceE+0x5760>
   87324:	913a6000 	add	x0, x0, #0xe98
   87328:	f9000260 	str	x0, [x19]
   8732c:	52800020 	mov	w0, #0x1                   	// #1
   87330:	b9000a60 	str	w0, [x19, #8]
   87334:	34000201 	cbz	w1, 87374 <_ZN6bufferC1Ej+0x64>
   87338:	6b00003f 	cmp	w1, w0
   8733c:	54000289 	b.ls	8738c <_ZN6bufferC1Ej+0x7c>  // b.plast
   87340:	0b000000 	add	w0, w0, w0
   87344:	6b01001f 	cmp	w0, w1
   87348:	54ffffc3 	b.cc	87340 <_ZN6bufferC1Ej+0x30>  // b.lo, b.ul, b.last
   8734c:	b9000a60 	str	w0, [x19, #8]
   87350:	d37d7c00 	ubfiz	x0, x0, #3, #32
   87354:	97ffe933 	bl	81820 <_Znam>
   87358:	f9000a60 	str	x0, [x19, #16]
   8735c:	b9400a61 	ldr	w1, [x19, #8]
   87360:	51000421 	sub	w1, w1, #0x1
   87364:	b9000a61 	str	w1, [x19, #8]
   87368:	f9400bf3 	ldr	x19, [sp, #16]
   8736c:	a8c27bfd 	ldp	x29, x30, [sp], #32
   87370:	d65f03c0 	ret
   87374:	d2800100 	mov	x0, #0x8                   	// #8
   87378:	97ffe92a 	bl	81820 <_Znam>
   8737c:	f9000a60 	str	x0, [x19, #16]
   87380:	f9400bf3 	ldr	x19, [sp, #16]
   87384:	a8c27bfd 	ldp	x29, x30, [sp], #32
   87388:	d65f03c0 	ret
   8738c:	d2800100 	mov	x0, #0x8                   	// #8
   87390:	17fffff1 	b	87354 <_ZN6bufferC1Ej+0x44>
   87394:	d503201f 	nop
   87398:	d503201f 	nop
   8739c:	d503201f 	nop

00000000000873a0 <_ZN6bufferD1Ev>:
   873a0:	aa0003e3 	mov	x3, x0
   873a4:	f9400800 	ldr	x0, [x0, #16]
   873a8:	d0000022 	adrp	x2, 8d000 <_ZN4font9monospaceE+0x5760>
   873ac:	913a6042 	add	x2, x2, #0xe98
   873b0:	d2800101 	mov	x1, #0x8                   	// #8
   873b4:	f9000062 	str	x2, [x3]
   873b8:	17ffe926 	b	81850 <_ZdlPvm>
   873bc:	d503201f 	nop

00000000000873c0 <_ZN6bufferD0Ev>:
   873c0:	a9be7bfd 	stp	x29, x30, [sp, #-32]!
   873c4:	d0000022 	adrp	x2, 8d000 <_ZN4font9monospaceE+0x5760>
   873c8:	913a6042 	add	x2, x2, #0xe98
   873cc:	910003fd 	mov	x29, sp
   873d0:	f9000bf3 	str	x19, [sp, #16]
   873d4:	aa0003f3 	mov	x19, x0
   873d8:	f9400800 	ldr	x0, [x0, #16]
   873dc:	d2800101 	mov	x1, #0x8                   	// #8
   873e0:	f9000262 	str	x2, [x19]
   873e4:	97ffe91b 	bl	81850 <_ZdlPvm>
   873e8:	aa1303e0 	mov	x0, x19
   873ec:	f9400bf3 	ldr	x19, [sp, #16]
   873f0:	a8c27bfd 	ldp	x29, x30, [sp], #32
   873f4:	d2800301 	mov	x1, #0x18                  	// #24
   873f8:	17ffe916 	b	81850 <_ZdlPvm>
   873fc:	00000000 	.inst	0x00000000 ; undefined

0000000000087400 <_ZN12buffer_delayD1Ev>:
   87400:	d0000021 	adrp	x1, 8d000 <_ZN4font9monospaceE+0x5760>
   87404:	913ae021 	add	x1, x1, #0xeb8
   87408:	f9000001 	str	x1, [x0]
   8740c:	17ffffe5 	b	873a0 <_ZN6bufferD1Ev>

0000000000087410 <_ZN12buffer_delayD0Ev>:
   87410:	a9be7bfd 	stp	x29, x30, [sp, #-32]!
   87414:	d0000021 	adrp	x1, 8d000 <_ZN4font9monospaceE+0x5760>
   87418:	913ae021 	add	x1, x1, #0xeb8
   8741c:	910003fd 	mov	x29, sp
   87420:	f9000bf3 	str	x19, [sp, #16]
   87424:	aa0003f3 	mov	x19, x0
   87428:	f9000001 	str	x1, [x0]
   8742c:	97ffffdd 	bl	873a0 <_ZN6bufferD1Ev>
   87430:	aa1303e0 	mov	x0, x19
   87434:	f9400bf3 	ldr	x19, [sp, #16]
   87438:	a8c27bfd 	ldp	x29, x30, [sp], #32
   8743c:	d2800401 	mov	x1, #0x20                  	// #32
   87440:	17ffe904 	b	81850 <_ZdlPvm>
   87444:	d503201f 	nop
   87448:	d503201f 	nop
   8744c:	d503201f 	nop

0000000000087450 <_ZN12buffer_delayC1Ej>:
   87450:	a9be7bfd 	stp	x29, x30, [sp, #-32]!
   87454:	910003fd 	mov	x29, sp
   87458:	f9000bf3 	str	x19, [sp, #16]
   8745c:	aa0003f3 	mov	x19, x0
   87460:	97ffffac 	bl	87310 <_ZN6bufferC1Ej>
   87464:	d0000020 	adrp	x0, 8d000 <_ZN4font9monospaceE+0x5760>
   87468:	913ae000 	add	x0, x0, #0xeb8
   8746c:	f9000260 	str	x0, [x19]
   87470:	b9001a7f 	str	wzr, [x19, #24]
   87474:	f9400bf3 	ldr	x19, [sp, #16]
   87478:	a8c27bfd 	ldp	x29, x30, [sp], #32
   8747c:	d65f03c0 	ret

0000000000087480 <_ZN12buffer_delay12get_previousEj>:
   87480:	b9401802 	ldr	w2, [x0, #24]
   87484:	b9400803 	ldr	w3, [x0, #8]
   87488:	0b020021 	add	w1, w1, w2
   8748c:	f9400800 	ldr	x0, [x0, #16]
   87490:	0a030021 	and	w1, w1, w3
   87494:	fc617800 	ldr	d0, [x0, x1, lsl #3]
   87498:	d65f03c0 	ret
   8749c:	d503201f 	nop

00000000000874a0 <_ZN12buffer_delay14update_currentEd>:
   874a0:	b9401802 	ldr	w2, [x0, #24]
   874a4:	f9400803 	ldr	x3, [x0, #16]
   874a8:	b9400804 	ldr	w4, [x0, #8]
   874ac:	11000441 	add	w1, w2, #0x1
   874b0:	0a040021 	and	w1, w1, w4
   874b4:	fc225860 	str	d0, [x3, w2, uxtw #3]
   874b8:	b9001801 	str	w1, [x0, #24]
   874bc:	d65f03c0 	ret

00000000000874c0 <_ZN11buffer_fifoD1Ev>:
   874c0:	d0000021 	adrp	x1, 8d000 <_ZN4font9monospaceE+0x5760>
   874c4:	913b6021 	add	x1, x1, #0xed8
   874c8:	f9000001 	str	x1, [x0]
   874cc:	17ffffb5 	b	873a0 <_ZN6bufferD1Ev>

00000000000874d0 <_ZN11buffer_fifoD0Ev>:
   874d0:	a9be7bfd 	stp	x29, x30, [sp, #-32]!
   874d4:	d0000021 	adrp	x1, 8d000 <_ZN4font9monospaceE+0x5760>
   874d8:	913b6021 	add	x1, x1, #0xed8
   874dc:	910003fd 	mov	x29, sp
   874e0:	f9000bf3 	str	x19, [sp, #16]
   874e4:	aa0003f3 	mov	x19, x0
   874e8:	f9000001 	str	x1, [x0]
   874ec:	97ffffad 	bl	873a0 <_ZN6bufferD1Ev>
   874f0:	aa1303e0 	mov	x0, x19
   874f4:	f9400bf3 	ldr	x19, [sp, #16]
   874f8:	a8c27bfd 	ldp	x29, x30, [sp], #32
   874fc:	d2800501 	mov	x1, #0x28                  	// #40
   87500:	17ffe8d4 	b	81850 <_ZdlPvm>
   87504:	d503201f 	nop
   87508:	d503201f 	nop
   8750c:	d503201f 	nop

0000000000087510 <_ZN11buffer_fifoC1Ej>:
   87510:	a9be7bfd 	stp	x29, x30, [sp, #-32]!
   87514:	910003fd 	mov	x29, sp
   87518:	f9000bf3 	str	x19, [sp, #16]
   8751c:	aa0003f3 	mov	x19, x0
   87520:	97ffff7c 	bl	87310 <_ZN6bufferC1Ej>
   87524:	0f000400 	movi	v0.2s, #0x0
   87528:	d0000020 	adrp	x0, 8d000 <_ZN4font9monospaceE+0x5760>
   8752c:	913b6000 	add	x0, x0, #0xed8
   87530:	f9000260 	str	x0, [x19]
   87534:	b900227f 	str	wzr, [x19, #32]
   87538:	fd000e60 	str	d0, [x19, #24]
   8753c:	f9400bf3 	ldr	x19, [sp, #16]
   87540:	a8c27bfd 	ldp	x29, x30, [sp], #32
   87544:	d65f03c0 	ret
   87548:	d503201f 	nop
   8754c:	d503201f 	nop

0000000000087550 <_ZN11buffer_fifo4pushEd>:
   87550:	b9400802 	ldr	w2, [x0, #8]
   87554:	b9402001 	ldr	w1, [x0, #32]
   87558:	6b02003f 	cmp	w1, w2
   8755c:	54000128 	b.hi	87580 <_ZN11buffer_fifo4pushEd+0x30>  // b.pmore
   87560:	b9401804 	ldr	w4, [x0, #24]
   87564:	11000421 	add	w1, w1, #0x1
   87568:	f9400805 	ldr	x5, [x0, #16]
   8756c:	11000483 	add	w3, w4, #0x1
   87570:	0a020062 	and	w2, w3, w2
   87574:	fc2458a0 	str	d0, [x5, w4, uxtw #3]
   87578:	b9001802 	str	w2, [x0, #24]
   8757c:	b9002001 	str	w1, [x0, #32]
   87580:	d65f03c0 	ret
   87584:	d503201f 	nop
   87588:	d503201f 	nop
   8758c:	d503201f 	nop

0000000000087590 <_ZN11buffer_fifo3popEv>:
   87590:	b9402001 	ldr	w1, [x0, #32]
   87594:	2f00e400 	movi	d0, #0x0
   87598:	34000121 	cbz	w1, 875bc <_ZN11buffer_fifo3popEv+0x2c>
   8759c:	b9401c03 	ldr	w3, [x0, #28]
   875a0:	51000421 	sub	w1, w1, #0x1
   875a4:	f9400804 	ldr	x4, [x0, #16]
   875a8:	b9400805 	ldr	w5, [x0, #8]
   875ac:	11000462 	add	w2, w3, #0x1
   875b0:	0a050042 	and	w2, w2, w5
   875b4:	fc635880 	ldr	d0, [x4, w3, uxtw #3]
   875b8:	29038402 	stp	w2, w1, [x0, #28]
   875bc:	d65f03c0 	ret

00000000000875c0 <_ZN11buffer_fifo16get_queue_lengthEv>:
   875c0:	b9402000 	ldr	w0, [x0, #32]
   875c4:	d65f03c0 	ret
	...

00000000000875d0 <_ZN6string9to_stringEm>:
   875d0:	a9be7bfd 	stp	x29, x30, [sp, #-32]!
   875d4:	910003fd 	mov	x29, sp
   875d8:	f9000bf3 	str	x19, [sp, #16]
   875dc:	aa0003f3 	mov	x19, x0
   875e0:	d2800260 	mov	x0, #0x13                  	// #19
   875e4:	97ffe88f 	bl	81820 <_Znam>
   875e8:	52800f02 	mov	w2, #0x78                  	// #120
   875ec:	52800601 	mov	w1, #0x30                  	// #48
   875f0:	39000402 	strb	w2, [x0, #1]
   875f4:	91000803 	add	x3, x0, #0x2
   875f8:	2a0103fe 	mov	w30, w1
   875fc:	39000001 	strb	w1, [x0]
   87600:	3900481f 	strb	wzr, [x0, #18]
   87604:	52800782 	mov	w2, #0x3c                  	// #60
   87608:	52800712 	mov	w18, #0x38                  	// #56
   8760c:	52800c71 	mov	w17, #0x63                  	// #99
   87610:	52800cb0 	mov	w16, #0x65                  	// #101
   87614:	52800c8f 	mov	w15, #0x64                  	// #100
   87618:	52800cce 	mov	w14, #0x66                  	// #102
   8761c:	52800c2d 	mov	w13, #0x61                  	// #97
   87620:	52800c4c 	mov	w12, #0x62                  	// #98
   87624:	5280072b 	mov	w11, #0x39                  	// #57
   87628:	5280068a 	mov	w10, #0x34                  	// #52
   8762c:	528006c9 	mov	w9, #0x36                  	// #54
   87630:	528006e8 	mov	w8, #0x37                  	// #55
   87634:	528006a7 	mov	w7, #0x35                  	// #53
   87638:	52800646 	mov	w6, #0x32                  	// #50
   8763c:	52800665 	mov	w5, #0x33                  	// #51
   87640:	52800624 	mov	w4, #0x31                  	// #49
   87644:	1400000f 	b	87680 <_ZN6string9to_stringEm+0xb0>
   87648:	f100103f 	cmp	x1, #0x4
   8764c:	540006c0 	b.eq	87724 <_ZN6string9to_stringEm+0x154>  // b.none
   87650:	540003e8 	b.hi	876cc <_ZN6string9to_stringEm+0xfc>  // b.pmore
   87654:	f100083f 	cmp	x1, #0x2
   87658:	540006e0 	b.eq	87734 <_ZN6string9to_stringEm+0x164>  // b.none
   8765c:	54000688 	b.hi	8772c <_ZN6string9to_stringEm+0x15c>  // b.pmore
   87660:	f100043f 	cmp	x1, #0x1
   87664:	54000501 	b.ne	87704 <_ZN6string9to_stringEm+0x134>  // b.any
   87668:	39000064 	strb	w4, [x3]
   8766c:	d503201f 	nop
   87670:	51001042 	sub	w2, w2, #0x4
   87674:	91000463 	add	x3, x3, #0x1
   87678:	3100105f 	cmn	w2, #0x4
   8767c:	54000220 	b.eq	876c0 <_ZN6string9to_stringEm+0xf0>  // b.none
   87680:	9ac22661 	lsr	x1, x19, x2
   87684:	92400c21 	and	x1, x1, #0xf
   87688:	f100203f 	cmp	x1, #0x8
   8768c:	54000480 	b.eq	8771c <_ZN6string9to_stringEm+0x14c>  // b.none
   87690:	54fffdc9 	b.ls	87648 <_ZN6string9to_stringEm+0x78>  // b.plast
   87694:	f100303f 	cmp	x1, #0xc
   87698:	54000320 	b.eq	876fc <_ZN6string9to_stringEm+0x12c>  // b.none
   8769c:	54000228 	b.hi	876e0 <_ZN6string9to_stringEm+0x110>  // b.pmore
   876a0:	f100283f 	cmp	x1, #0xa
   876a4:	54000500 	b.eq	87744 <_ZN6string9to_stringEm+0x174>  // b.none
   876a8:	540004a8 	b.hi	8773c <_ZN6string9to_stringEm+0x16c>  // b.pmore
   876ac:	3900006b 	strb	w11, [x3]
   876b0:	51001042 	sub	w2, w2, #0x4
   876b4:	91000463 	add	x3, x3, #0x1
   876b8:	3100105f 	cmn	w2, #0x4
   876bc:	54fffe21 	b.ne	87680 <_ZN6string9to_stringEm+0xb0>  // b.any
   876c0:	f9400bf3 	ldr	x19, [sp, #16]
   876c4:	a8c27bfd 	ldp	x29, x30, [sp], #32
   876c8:	d65f03c0 	ret
   876cc:	f100183f 	cmp	x1, #0x6
   876d0:	54000420 	b.eq	87754 <_ZN6string9to_stringEm+0x184>  // b.none
   876d4:	540003c8 	b.hi	8774c <_ZN6string9to_stringEm+0x17c>  // b.pmore
   876d8:	39000067 	strb	w7, [x3]
   876dc:	17ffffe5 	b	87670 <_ZN6string9to_stringEm+0xa0>
   876e0:	f100383f 	cmp	x1, #0xe
   876e4:	54000180 	b.eq	87714 <_ZN6string9to_stringEm+0x144>  // b.none
   876e8:	54000123 	b.cc	8770c <_ZN6string9to_stringEm+0x13c>  // b.lo, b.ul, b.last
   876ec:	f1003c3f 	cmp	x1, #0xf
   876f0:	540000a1 	b.ne	87704 <_ZN6string9to_stringEm+0x134>  // b.any
   876f4:	3900006e 	strb	w14, [x3]
   876f8:	17ffffde 	b	87670 <_ZN6string9to_stringEm+0xa0>
   876fc:	39000071 	strb	w17, [x3]
   87700:	17ffffdc 	b	87670 <_ZN6string9to_stringEm+0xa0>
   87704:	3900007e 	strb	w30, [x3]
   87708:	17ffffda 	b	87670 <_ZN6string9to_stringEm+0xa0>
   8770c:	3900006f 	strb	w15, [x3]
   87710:	17ffffd8 	b	87670 <_ZN6string9to_stringEm+0xa0>
   87714:	39000070 	strb	w16, [x3]
   87718:	17ffffd6 	b	87670 <_ZN6string9to_stringEm+0xa0>
   8771c:	39000072 	strb	w18, [x3]
   87720:	17ffffd4 	b	87670 <_ZN6string9to_stringEm+0xa0>
   87724:	3900006a 	strb	w10, [x3]
   87728:	17ffffd2 	b	87670 <_ZN6string9to_stringEm+0xa0>
   8772c:	39000065 	strb	w5, [x3]
   87730:	17ffffd0 	b	87670 <_ZN6string9to_stringEm+0xa0>
   87734:	39000066 	strb	w6, [x3]
   87738:	17ffffce 	b	87670 <_ZN6string9to_stringEm+0xa0>
   8773c:	3900006c 	strb	w12, [x3]
   87740:	17ffffcc 	b	87670 <_ZN6string9to_stringEm+0xa0>
   87744:	3900006d 	strb	w13, [x3]
   87748:	17ffffca 	b	87670 <_ZN6string9to_stringEm+0xa0>
   8774c:	39000068 	strb	w8, [x3]
   87750:	17ffffc8 	b	87670 <_ZN6string9to_stringEm+0xa0>
   87754:	39000069 	strb	w9, [x3]
   87758:	17ffffc6 	b	87670 <_ZN6string9to_stringEm+0xa0>

Disassembly of section .text.startup:

0000000000087760 <main>:
   87760:	a9a47bfd 	stp	x29, x30, [sp, #-448]!
   87764:	910003fd 	mov	x29, sp
   87768:	a90153f3 	stp	x19, x20, [sp, #16]
   8776c:	910703b4 	add	x20, x29, #0x1c0
   87770:	fd0013e8 	str	d8, [sp, #32]
   87774:	97ffe673 	bl	81140 <_ZN10buddy_heap10initializeEv>
   87778:	910203a0 	add	x0, x29, #0x80
   8777c:	97fff149 	bl	83ca0 <_ZN19mailbox_framebufferC1Ev>
   87780:	910203a0 	add	x0, x29, #0x80
   87784:	97fff177 	bl	83d60 <_ZN19mailbox_framebuffer15get_framebufferEv>
   87788:	5c000840 	ldr	d0, 87890 <main+0x130>
   8778c:	aa0003e2 	mov	x2, x0
   87790:	910143b3 	add	x19, x29, #0x50
   87794:	aa1303e0 	mov	x0, x19
   87798:	fc160e80 	str	d0, [x20, #-160]!
   8779c:	aa1403e1 	mov	x1, x20
   877a0:	97ffe870 	bl	81960 <_ZN6screenC1E6vectorILj2EjEP5color>
   877a4:	aa1303e1 	mov	x1, x19
   877a8:	9101a3a0 	add	x0, x29, #0x68
   877ac:	97fff729 	bl	85450 <_ZN12effect_graphC1EP6screen>
   877b0:	0f010641 	movi	v1.2s, #0x32
   877b4:	0f000408 	movi	v8.2s, #0x0
   877b8:	5c000700 	ldr	d0, 87898 <main+0x138>
   877bc:	910123a2 	add	x2, x29, #0x48
   877c0:	910103a1 	add	x1, x29, #0x40
   877c4:	910303a0 	add	x0, x29, #0xc0
   877c8:	6d0403a1 	stp	d1, d0, [x29, #64]
   877cc:	97ffe619 	bl	81030 <_ZN9rectangleC1E6vectorILj2EjES1_>
   877d0:	12800004 	mov	w4, #0xffffffff            	// #-1
   877d4:	52800003 	mov	w3, #0x0                   	// #0
   877d8:	52800002 	mov	w2, #0x0                   	// #0
   877dc:	52800fe1 	mov	w1, #0x7f                  	// #127
   877e0:	9100e3a0 	add	x0, x29, #0x38
   877e4:	97ffecdb 	bl	82b50 <_ZN5colorC1Ehhhh>
   877e8:	9100e3a2 	add	x2, x29, #0x38
   877ec:	910303a1 	add	x1, x29, #0xc0
   877f0:	aa1403e0 	mov	x0, x20
   877f4:	97fffd67 	bl	86d90 <_ZN13effect_chorusC1E9rectangle5color>
   877f8:	9100e3a0 	add	x0, x29, #0x38
   877fc:	97ffecdd 	bl	82b70 <_ZN5colorD1Ev>
   87800:	910303a0 	add	x0, x29, #0xc0
   87804:	97ffe617 	bl	81060 <_ZN9rectangleD1Ev>
   87808:	aa1403e1 	mov	x1, x20
   8780c:	9101a3a0 	add	x0, x29, #0x68
   87810:	97fff75c 	bl	85580 <_ZN12effect_graph10add_effectEP6effect>
   87814:	d0000034 	adrp	x20, 8d000 <_ZN4font9monospaceE+0x5760>
   87818:	9130c294 	add	x20, x20, #0xc30
   8781c:	910303a0 	add	x0, x29, #0xc0
   87820:	97fff15c 	bl	83d90 <_ZN3gpuC1Ev>
   87824:	52803c02 	mov	w2, #0x1e0                 	// #480
   87828:	52806401 	mov	w1, #0x320                 	// #800
   8782c:	910303a0 	add	x0, x29, #0xc0
   87830:	f9008fb3 	str	x19, [x29, #280]
   87834:	97fff16b 	bl	83de0 <_ZN3gpu19V3D_InitializeSceneEtt>
   87838:	910303a0 	add	x0, x29, #0xc0
   8783c:	97fff19d 	bl	83eb0 <_ZN3gpu22V3D_AddVertexesToSceneEv>
   87840:	d0000021 	adrp	x1, 8d000 <_ZN4font9monospaceE+0x5760>
   87844:	913bc021 	add	x1, x1, #0xef0
   87848:	52800242 	mov	w2, #0x12                  	// #18
   8784c:	910303a0 	add	x0, x29, #0xc0
   87850:	97fff250 	bl	84190 <_ZN3gpu21V3D_AddShadderToSceneEPjj>
   87854:	910203a0 	add	x0, x29, #0x80
   87858:	97fff142 	bl	83d60 <_ZN19mailbox_framebuffer15get_framebufferEv>
   8785c:	2a0003e1 	mov	w1, w0
   87860:	910303a0 	add	x0, x29, #0xc0
   87864:	97fff297 	bl	842c0 <_ZN3gpu22V3D_SetupRenderControlEj>
   87868:	910303a0 	add	x0, x29, #0xc0
   8786c:	97fff301 	bl	84470 <_ZN3gpu22V3D_SetupBinningConfigEv>
   87870:	910303a0 	add	x0, x29, #0xc0
   87874:	97fff377 	bl	84650 <_ZN3gpu15V3D_RenderSceneEv>
   87878:	910123a2 	add	x2, x29, #0x48
   8787c:	aa1403e1 	mov	x1, x20
   87880:	aa1303e0 	mov	x0, x19
   87884:	fd0027a8 	str	d8, [x29, #72]
   87888:	97ffebc6 	bl	827a0 <_ZN6screen9draw_textEPKc6vectorILj2EjE>
   8788c:	17fffff9 	b	87870 <main+0x110>
   87890:	00000320 	.word	0x00000320
   87894:	000001e0 	.word	0x000001e0
   87898:	00000064 	.word	0x00000064
   8789c:	00000032 	.word	0x00000032
