
kernel8.elf:     file format elf64-littleaarch64


Disassembly of section .text:

0000000000080000 <_start>:
   80000:	d5384240 	mrs	x0, currentel
   80004:	f100101f 	cmp	x0, #0x4
   80008:	54000340 	b.eq	80070 <_start+0x70>
   8000c:	580041e0 	ldr	x0, 80848 <interrupt_handler+0x4>
   80010:	d51c4100 	msr	sp_el1, x0
   80014:	d53ce100 	mrs	x0, cnthctl_el2
   80018:	b2400400 	orr	x0, x0, #0x3
   8001c:	d51ce100 	msr	cnthctl_el2, x0
   80020:	d51ce07f 	msr	cntvoff_el2, xzr
   80024:	d5380000 	mrs	x0, midr_el1
   80028:	d53800a1 	mrs	x1, mpidr_el1
   8002c:	d51c0000 	msr	vpidr_el2, x0
   80030:	d51c00a1 	msr	vmpidr_el2, x1
   80034:	d2867fe0 	mov	x0, #0x33ff                	// #13311
   80038:	d51c1140 	msr	cptr_el2, x0
   8003c:	d51c117f 	msr	hstr_el2, xzr
   80040:	d2a00600 	mov	x0, #0x300000              	// #3145728
   80044:	d5181040 	msr	cpacr_el1, x0
   80048:	d2b00000 	mov	x0, #0x80000000            	// #2147483648
   8004c:	d51c1100 	msr	hcr_el2, x0
   80050:	d2810000 	mov	x0, #0x800                 	// #2048
   80054:	f2a61a00 	movk	x0, #0x30d0, lsl #16
   80058:	d5181000 	msr	sctlr_el1, x0
   8005c:	d2807880 	mov	x0, #0x3c4                 	// #964
   80060:	d51c4000 	msr	spsr_el2, x0
   80064:	10000060 	adr	x0, 80070 <_start+0x70>
   80068:	d51c4020 	msr	elr_el2, x0
   8006c:	d69f03e0 	eret
   80070:	58003f00 	ldr	x0, 80850 <interrupt_handler+0xc>
   80074:	9100001f 	mov	sp, x0
   80078:	58003f00 	ldr	x0, 80858 <interrupt_handler+0x14>
   8007c:	d518c000 	msr	vbar_el1, x0
   80080:	140004ec 	b	81430 <main>
   80084:	d503201f 	nop
   80088:	d503201f 	nop
   8008c:	d503201f 	nop
   80090:	d503201f 	nop
   80094:	d503201f 	nop
   80098:	d503201f 	nop
   8009c:	d503201f 	nop
	...

0000000000080800 <VectorTable>:
   80800:	14000010 	b	80840 <exception_handler>
   80804:	14000010 	b	80844 <interrupt_handler>
   80808:	1400000e 	b	80840 <exception_handler>
   8080c:	1400000d 	b	80840 <exception_handler>
   80810:	1400000c 	b	80840 <exception_handler>
   80814:	1400000b 	b	80840 <exception_handler>
   80818:	1400000a 	b	80840 <exception_handler>
   8081c:	14000009 	b	80840 <exception_handler>
   80820:	14000008 	b	80840 <exception_handler>
   80824:	14000007 	b	80840 <exception_handler>
   80828:	14000006 	b	80840 <exception_handler>
   8082c:	14000005 	b	80840 <exception_handler>
   80830:	14000004 	b	80840 <exception_handler>
   80834:	14000003 	b	80840 <exception_handler>
   80838:	14000002 	b	80840 <exception_handler>
   8083c:	14000001 	b	80840 <exception_handler>

0000000000080840 <exception_handler>:
   80840:	14000000 	b	80840 <exception_handler>

0000000000080844 <interrupt_handler>:
   80844:	14000000 	b	80844 <interrupt_handler>
   80848:	002a8000 	.word	0x002a8000
   8084c:	00000000 	.word	0x00000000
   80850:	002a0000 	.word	0x002a0000
   80854:	00000000 	.word	0x00000000
   80858:	00080800 	.word	0x00080800
	...

0000000000081000 <enable_mmu()>:
   81000:	d2809980 	mov	x0, #0x4cc                 	// #1228
   81004:	d518a200 	msr	mair_el1, x0
   81008:	90000000 	adrp	x0, 81000 <enable_mmu()>
   8100c:	f9435c00 	ldr	x0, [x0,#1720]
   81010:	d5182000 	msr	ttbr0_el1, x0
   81014:	d5382042 	mrs	x2, tcr_el1
   81018:	929ff7e0 	mov	x0, #0xffffffffffff0040    	// #-65472
   8101c:	f2bff7e0 	movk	x0, #0xffbf, lsl #16
   81020:	f2dfff00 	movk	x0, #0xfff8, lsl #32
   81024:	d28fe401 	mov	x1, #0x7f20                	// #32544
   81028:	f2a01001 	movk	x1, #0x80, lsl #16
   8102c:	8a000040 	and	x0, x2, x0
   81030:	aa010000 	orr	x0, x0, x1
   81034:	d5182040 	msr	tcr_el1, x0
   81038:	d5381002 	mrs	x2, sctlr_el1
   8103c:	529fffa0 	mov	w0, #0xfffd                	// #65533
   81040:	72bffee0 	movk	w0, #0xfff7, lsl #16
   81044:	528200a1 	mov	w1, #0x1005                	// #4101
   81048:	0a000040 	and	w0, w2, w0
   8104c:	2a010000 	orr	w0, w0, w1
   81050:	d5181000 	msr	sctlr_el1, x0
   81054:	d65f03c0 	ret

0000000000081058 <memset(void*, int, unsigned long)>:
   81058:	b40000e2 	cbz	x2, 81074 <memset(void*, int, unsigned long)+0x1c>
   8105c:	53001c21 	uxtb	w1, w1
   81060:	8b020002 	add	x2, x0, x2
   81064:	aa0003e3 	mov	x3, x0
   81068:	38001461 	strb	w1, [x3],#1
   8106c:	eb02007f 	cmp	x3, x2
   81070:	54ffffc1 	b.ne	81068 <memset(void*, int, unsigned long)+0x10>
   81074:	d65f03c0 	ret

0000000000081078 <palloc()>:
   81078:	90000001 	adrp	x1, 81000 <enable_mmu()>
   8107c:	f9435820 	ldr	x0, [x1,#1712]
   81080:	91404002 	add	x2, x0, #0x10, lsl #12
   81084:	f9035822 	str	x2, [x1,#1712]
   81088:	d65f03c0 	ret

000000000008108c <CreateLevel3Table(unsigned long)>:
   8108c:	f81c0ffe 	str	x30, [sp,#-64]!
   81090:	f9000fe0 	str	x0, [sp,#24]
   81094:	97fffff9 	bl	81078 <palloc()>
   81098:	f9001be0 	str	x0, [sp,#48]
   8109c:	b9003fff 	str	wzr, [sp,#60]
   810a0:	14000078 	b	81280 <CreateLevel3Table(unsigned long)+0x1f4>
   810a4:	b9403fe0 	ldr	w0, [sp,#60]
   810a8:	d37df000 	lsl	x0, x0, #3
   810ac:	f9401be1 	ldr	x1, [sp,#48]
   810b0:	8b000020 	add	x0, x1, x0
   810b4:	f90017e0 	str	x0, [sp,#40]
   810b8:	f94017e0 	ldr	x0, [sp,#40]
   810bc:	39400001 	ldrb	w1, [x0]
   810c0:	32000421 	orr	w1, w1, #0x3
   810c4:	39000001 	strb	w1, [x0]
   810c8:	f94017e0 	ldr	x0, [sp,#40]
   810cc:	39400001 	ldrb	w1, [x0]
   810d0:	121b7021 	and	w1, w1, #0xffffffe3
   810d4:	39000001 	strb	w1, [x0]
   810d8:	f94017e0 	ldr	x0, [sp,#40]
   810dc:	39400001 	ldrb	w1, [x0]
   810e0:	121a7821 	and	w1, w1, #0xffffffdf
   810e4:	39000001 	strb	w1, [x0]
   810e8:	f94017e0 	ldr	x0, [sp,#40]
   810ec:	39400001 	ldrb	w1, [x0]
   810f0:	12001421 	and	w1, w1, #0x3f
   810f4:	39000001 	strb	w1, [x0]
   810f8:	f94017e0 	ldr	x0, [sp,#40]
   810fc:	39400401 	ldrb	w1, [x0,#1]
   81100:	32000421 	orr	w1, w1, #0x3
   81104:	39000401 	strb	w1, [x0,#1]
   81108:	f94017e0 	ldr	x0, [sp,#40]
   8110c:	39400401 	ldrb	w1, [x0,#1]
   81110:	321e0021 	orr	w1, w1, #0x4
   81114:	39000401 	strb	w1, [x0,#1]
   81118:	f94017e0 	ldr	x0, [sp,#40]
   8111c:	39400401 	ldrb	w1, [x0,#1]
   81120:	121c7821 	and	w1, w1, #0xfffffff7
   81124:	39000401 	strb	w1, [x0,#1]
   81128:	f94017e0 	ldr	x0, [sp,#40]
   8112c:	39400401 	ldrb	w1, [x0,#1]
   81130:	12000c21 	and	w1, w1, #0xf
   81134:	39000401 	strb	w1, [x0,#1]
   81138:	f9400fe0 	ldr	x0, [sp,#24]
   8113c:	d350fc00 	lsr	x0, x0, #16
   81140:	2a0003e2 	mov	w2, w0
   81144:	f94017e1 	ldr	x1, [sp,#40]
   81148:	f9400020 	ldr	x0, [x1]
   8114c:	b3707c40 	bfi	x0, x2, #16, #32
   81150:	f9000020 	str	x0, [x1]
   81154:	f94017e0 	ldr	x0, [sp,#40]
   81158:	39401801 	ldrb	w1, [x0,#6]
   8115c:	121c6c21 	and	w1, w1, #0xfffffff0
   81160:	39001801 	strb	w1, [x0,#6]
   81164:	f94017e0 	ldr	x0, [sp,#40]
   81168:	39401801 	ldrb	w1, [x0,#6]
   8116c:	121b7821 	and	w1, w1, #0xffffffef
   81170:	39001801 	strb	w1, [x0,#6]
   81174:	f94017e0 	ldr	x0, [sp,#40]
   81178:	39401801 	ldrb	w1, [x0,#6]
   8117c:	121a7821 	and	w1, w1, #0xffffffdf
   81180:	39001801 	strb	w1, [x0,#6]
   81184:	f94017e0 	ldr	x0, [sp,#40]
   81188:	39401801 	ldrb	w1, [x0,#6]
   8118c:	321a0021 	orr	w1, w1, #0x40
   81190:	39001801 	strb	w1, [x0,#6]
   81194:	f94017e0 	ldr	x0, [sp,#40]
   81198:	39401801 	ldrb	w1, [x0,#6]
   8119c:	12001821 	and	w1, w1, #0x7f
   811a0:	39001801 	strb	w1, [x0,#6]
   811a4:	39401c01 	ldrb	w1, [x0,#7]
   811a8:	52800002 	mov	w2, #0x0                   	// #0
   811ac:	0a020021 	and	w1, w1, w2
   811b0:	39001c01 	strb	w1, [x0,#7]
   811b4:	90000000 	adrp	x0, 81000 <enable_mmu()>
   811b8:	911ab000 	add	x0, x0, #0x6ac
   811bc:	f9400fe1 	ldr	x1, [sp,#24]
   811c0:	eb00003f 	cmp	x1, x0
   811c4:	54000523 	b.cc	81268 <CreateLevel3Table(unsigned long)+0x1dc>
   811c8:	f94017e0 	ldr	x0, [sp,#40]
   811cc:	39401801 	ldrb	w1, [x0,#6]
   811d0:	321b0021 	orr	w1, w1, #0x20
   811d4:	39001801 	strb	w1, [x0,#6]
   811d8:	90000000 	adrp	x0, 81000 <enable_mmu()>
   811dc:	911b0000 	add	x0, x0, #0x6c0
   811e0:	f9400000 	ldr	x0, [x0]
   811e4:	f9400fe1 	ldr	x1, [sp,#24]
   811e8:	eb00003f 	cmp	x1, x0
   811ec:	54000183 	b.cc	8121c <CreateLevel3Table(unsigned long)+0x190>
   811f0:	f94017e1 	ldr	x1, [sp,#40]
   811f4:	39400020 	ldrb	w0, [x1]
   811f8:	52800022 	mov	w2, #0x1                   	// #1
   811fc:	331e0840 	bfi	w0, w2, #2, #3
   81200:	39000020 	strb	w0, [x1]
   81204:	f94017e1 	ldr	x1, [sp,#40]
   81208:	39400420 	ldrb	w0, [x1,#1]
   8120c:	52800042 	mov	w2, #0x2                   	// #2
   81210:	33000440 	bfxil	w0, w2, #0, #2
   81214:	39000420 	strb	w0, [x1,#1]
   81218:	14000014 	b	81268 <CreateLevel3Table(unsigned long)+0x1dc>
   8121c:	f9400fe1 	ldr	x1, [sp,#24]
   81220:	b24057e0 	mov	x0, #0x3fffff              	// #4194303
   81224:	eb00003f 	cmp	x1, x0
   81228:	54000209 	b.ls	81268 <CreateLevel3Table(unsigned long)+0x1dc>
   8122c:	f9400fe1 	ldr	x1, [sp,#24]
   81230:	d29fffe0 	mov	x0, #0xffff                	// #65535
   81234:	f2a009e0 	movk	x0, #0x4f, lsl #16
   81238:	eb00003f 	cmp	x1, x0
   8123c:	54000168 	b.hi	81268 <CreateLevel3Table(unsigned long)+0x1dc>
   81240:	f94017e1 	ldr	x1, [sp,#40]
   81244:	39400020 	ldrb	w0, [x1]
   81248:	52800042 	mov	w2, #0x2                   	// #2
   8124c:	331e0840 	bfi	w0, w2, #2, #3
   81250:	39000020 	strb	w0, [x1]
   81254:	f94017e1 	ldr	x1, [sp,#40]
   81258:	39400420 	ldrb	w0, [x1,#1]
   8125c:	52800042 	mov	w2, #0x2                   	// #2
   81260:	33000440 	bfxil	w0, w2, #0, #2
   81264:	39000420 	strb	w0, [x1,#1]
   81268:	f9400fe0 	ldr	x0, [sp,#24]
   8126c:	91404000 	add	x0, x0, #0x10, lsl #12
   81270:	f9000fe0 	str	x0, [sp,#24]
   81274:	b9403fe0 	ldr	w0, [sp,#60]
   81278:	11000400 	add	w0, w0, #0x1
   8127c:	b9003fe0 	str	w0, [sp,#60]
   81280:	b9403fe1 	ldr	w1, [sp,#60]
   81284:	5283ffe0 	mov	w0, #0x1fff                	// #8191
   81288:	6b00003f 	cmp	w1, w0
   8128c:	54fff0c9 	b.ls	810a4 <CreateLevel3Table(unsigned long)+0x18>
   81290:	f9401be0 	ldr	x0, [sp,#48]
   81294:	f84407fe 	ldr	x30, [sp],#64
   81298:	d65f03c0 	ret

000000000008129c <createLevel2Table()>:
   8129c:	f81c0ffe 	str	x30, [sp,#-64]!
   812a0:	97ffff76 	bl	81078 <palloc()>
   812a4:	f9001be0 	str	x0, [sp,#48]
   812a8:	d2a00022 	mov	x2, #0x10000               	// #65536
   812ac:	52800001 	mov	w1, #0x0                   	// #0
   812b0:	f9401be0 	ldr	x0, [sp,#48]
   812b4:	97ffff69 	bl	81058 <memset(void*, int, unsigned long)>
   812b8:	b9003fff 	str	wzr, [sp,#60]
   812bc:	1400003d 	b	813b0 <createLevel2Table()+0x114>
   812c0:	b9403fe0 	ldr	w0, [sp,#60]
   812c4:	d3638800 	lsl	x0, x0, #29
   812c8:	f90017e0 	str	x0, [sp,#40]
   812cc:	f94017e0 	ldr	x0, [sp,#40]
   812d0:	97ffff6f 	bl	8108c <CreateLevel3Table(unsigned long)>
   812d4:	f90013e0 	str	x0, [sp,#32]
   812d8:	b9403fe0 	ldr	w0, [sp,#60]
   812dc:	d37df000 	lsl	x0, x0, #3
   812e0:	f9401be1 	ldr	x1, [sp,#48]
   812e4:	8b000020 	add	x0, x1, x0
   812e8:	f9000fe0 	str	x0, [sp,#24]
   812ec:	f9400fe0 	ldr	x0, [sp,#24]
   812f0:	39400001 	ldrb	w1, [x0]
   812f4:	32000421 	orr	w1, w1, #0x3
   812f8:	39000001 	strb	w1, [x0]
   812fc:	f9400fe0 	ldr	x0, [sp,#24]
   81300:	39400001 	ldrb	w1, [x0]
   81304:	12000421 	and	w1, w1, #0x3
   81308:	39000001 	strb	w1, [x0]
   8130c:	39400401 	ldrb	w1, [x0,#1]
   81310:	52800002 	mov	w2, #0x0                   	// #0
   81314:	0a020021 	and	w1, w1, w2
   81318:	39000401 	strb	w1, [x0,#1]
   8131c:	f94013e0 	ldr	x0, [sp,#32]
   81320:	d350fc00 	lsr	x0, x0, #16
   81324:	2a0003e2 	mov	w2, w0
   81328:	f9400fe1 	ldr	x1, [sp,#24]
   8132c:	f9400020 	ldr	x0, [x1]
   81330:	b3707c40 	bfi	x0, x2, #16, #32
   81334:	f9000020 	str	x0, [x1]
   81338:	f9400fe0 	ldr	x0, [sp,#24]
   8133c:	39401801 	ldrb	w1, [x0,#6]
   81340:	121c6c21 	and	w1, w1, #0xfffffff0
   81344:	39001801 	strb	w1, [x0,#6]
   81348:	f9400fe0 	ldr	x0, [sp,#24]
   8134c:	39401801 	ldrb	w1, [x0,#6]
   81350:	12000c21 	and	w1, w1, #0xf
   81354:	39001801 	strb	w1, [x0,#6]
   81358:	39401c01 	ldrb	w1, [x0,#7]
   8135c:	121d7021 	and	w1, w1, #0xfffffff8
   81360:	39001c01 	strb	w1, [x0,#7]
   81364:	f9400fe0 	ldr	x0, [sp,#24]
   81368:	39401c01 	ldrb	w1, [x0,#7]
   8136c:	121c7821 	and	w1, w1, #0xfffffff7
   81370:	39001c01 	strb	w1, [x0,#7]
   81374:	f9400fe0 	ldr	x0, [sp,#24]
   81378:	39401c01 	ldrb	w1, [x0,#7]
   8137c:	121b7821 	and	w1, w1, #0xffffffef
   81380:	39001c01 	strb	w1, [x0,#7]
   81384:	f9400fe0 	ldr	x0, [sp,#24]
   81388:	39401c01 	ldrb	w1, [x0,#7]
   8138c:	12197421 	and	w1, w1, #0xffffff9f
   81390:	39001c01 	strb	w1, [x0,#7]
   81394:	f9400fe0 	ldr	x0, [sp,#24]
   81398:	39401c01 	ldrb	w1, [x0,#7]
   8139c:	12001821 	and	w1, w1, #0x7f
   813a0:	39001c01 	strb	w1, [x0,#7]
   813a4:	b9403fe0 	ldr	w0, [sp,#60]
   813a8:	11000400 	add	w0, w0, #0x1
   813ac:	b9003fe0 	str	w0, [sp,#60]
   813b0:	b9403fe0 	ldr	w0, [sp,#60]
   813b4:	7100081f 	cmp	w0, #0x2
   813b8:	54fff849 	b.ls	812c0 <createLevel2Table()+0x24>
   813bc:	d5033f9f 	dsb	sy
   813c0:	f9401be0 	ldr	x0, [sp,#48]
   813c4:	f84407fe 	ldr	x30, [sp],#64
   813c8:	d65f03c0 	ret

00000000000813cc <initialize_memory()>:
   813cc:	f81f0ffe 	str	x30, [sp,#-16]!
   813d0:	97ffffb3 	bl	8129c <createLevel2Table()>
   813d4:	90000002 	adrp	x2, 81000 <enable_mmu()>
   813d8:	d2809981 	mov	x1, #0x4cc                 	// #1228
   813dc:	f9035c40 	str	x0, [x2,#1720]
   813e0:	d518a201 	msr	mair_el1, x1
   813e4:	d5182000 	msr	ttbr0_el1, x0
   813e8:	d5382042 	mrs	x2, tcr_el1
   813ec:	929ff7e0 	mov	x0, #0xffffffffffff0040    	// #-65472
   813f0:	f2bff7e0 	movk	x0, #0xffbf, lsl #16
   813f4:	f2dfff00 	movk	x0, #0xfff8, lsl #32
   813f8:	d28fe401 	mov	x1, #0x7f20                	// #32544
   813fc:	f2a01001 	movk	x1, #0x80, lsl #16
   81400:	8a000040 	and	x0, x2, x0
   81404:	aa010000 	orr	x0, x0, x1
   81408:	d5182040 	msr	tcr_el1, x0
   8140c:	d5381002 	mrs	x2, sctlr_el1
   81410:	529fffa0 	mov	w0, #0xfffd                	// #65533
   81414:	72bffee0 	movk	w0, #0xfff7, lsl #16
   81418:	528200a1 	mov	w1, #0x1005                	// #4101
   8141c:	0a000040 	and	w0, w2, w0
   81420:	2a010000 	orr	w0, w0, w1
   81424:	d5181000 	msr	sctlr_el1, x0
   81428:	f84107fe 	ldr	x30, [sp],#16
   8142c:	d65f03c0 	ret

0000000000081430 <main>:
   81430:	a9be53f3 	stp	x19, x20, [sp,#-32]!
   81434:	90000001 	adrp	x1, 81000 <enable_mmu()>
   81438:	90000000 	adrp	x0, 81000 <enable_mmu()>
   8143c:	911b2000 	add	x0, x0, #0x6c8
   81440:	911ae021 	add	x1, x1, #0x6b8
   81444:	a9017bf5 	stp	x21, x30, [sp,#16]
   81448:	eb00003f 	cmp	x1, x0
   8144c:	54000082 	b.cs	8145c <main+0x2c>
   81450:	3800143f 	strb	wzr, [x1],#1
   81454:	eb00003f 	cmp	x1, x0
   81458:	54ffffc1 	b.ne	81450 <main+0x20>
   8145c:	90000001 	adrp	x1, 81000 <enable_mmu()>
   81460:	911ab021 	add	x1, x1, #0x6ac
   81464:	90000000 	adrp	x0, 81000 <enable_mmu()>
   81468:	911ab000 	add	x0, x0, #0x6ac
   8146c:	eb00003f 	cmp	x1, x0
   81470:	540001c2 	b.cs	814a8 <main+0x78>
   81474:	91001c00 	add	x0, x0, #0x7
   81478:	90000013 	adrp	x19, 81000 <enable_mmu()>
   8147c:	911ad273 	add	x19, x19, #0x6b4
   81480:	cb130013 	sub	x19, x0, x19
   81484:	d2800014 	mov	x20, #0x0                   	// #0
   81488:	d343fe73 	lsr	x19, x19, #3
   8148c:	aa0103f5 	mov	x21, x1
   81490:	91000673 	add	x19, x19, #0x1
   81494:	f8747aa0 	ldr	x0, [x21,x20,lsl #3]
   81498:	91000694 	add	x20, x20, #0x1
   8149c:	d63f0000 	blr	x0
   814a0:	eb13029f 	cmp	x20, x19
   814a4:	54ffff81 	b.ne	81494 <main+0x64>
   814a8:	97ffffc9 	bl	813cc <initialize_memory()>
   814ac:	d2800c00 	mov	x0, #0x60                  	// #96
   814b0:	f2a00a00 	movk	x0, #0x50, lsl #16
   814b4:	52806403 	mov	w3, #0x320                 	// #800
   814b8:	52803c02 	mov	w2, #0x1e0                 	// #480
   814bc:	52800404 	mov	w4, #0x20                  	// #32
   814c0:	52800001 	mov	w1, #0x0                   	// #0
   814c4:	b9000003 	str	w3, [x0]
   814c8:	b9000402 	str	w2, [x0,#4]
   814cc:	b9000803 	str	w3, [x0,#8]
   814d0:	b9000c02 	str	w2, [x0,#12]
   814d4:	b900101f 	str	wzr, [x0,#16]
   814d8:	b9001404 	str	w4, [x0,#20]
   814dc:	b900181f 	str	wzr, [x0,#24]
   814e0:	b9001c1f 	str	wzr, [x0,#28]
   814e4:	b900201f 	str	wzr, [x0,#32]
   814e8:	b900241f 	str	wzr, [x0,#36]
   814ec:	531a6420 	lsl	w0, w1, #6
   814f0:	2a0003e2 	mov	w2, w0
   814f4:	d5087a42 	dc	csw, x2
   814f8:	32020002 	orr	w2, w0, #0x40000000
   814fc:	2a0203e2 	mov	w2, w2
   81500:	d5087a42 	dc	csw, x2
   81504:	32010002 	orr	w2, w0, #0x80000000
   81508:	2a0203e2 	mov	w2, w2
   8150c:	d5087a42 	dc	csw, x2
   81510:	32020400 	orr	w0, w0, #0xc0000000
   81514:	2a0003e0 	mov	w0, w0
   81518:	d5087a40 	dc	csw, x0
   8151c:	11000421 	add	w1, w1, #0x1
   81520:	7102003f 	cmp	w1, #0x80
   81524:	54fffe41 	b.ne	814ec <main+0xbc>
   81528:	52800001 	mov	w1, #0x0                   	// #0
   8152c:	531a6420 	lsl	w0, w1, #6
   81530:	52800002 	mov	w2, #0x0                   	// #0
   81534:	321f0000 	orr	w0, w0, #0x2
   81538:	2a027003 	orr	w3, w0, w2, lsl #28
   8153c:	2a0303e3 	mov	w3, w3
   81540:	d5087a43 	dc	csw, x3
   81544:	11000442 	add	w2, w2, #0x1
   81548:	7100405f 	cmp	w2, #0x10
   8154c:	54ffff61 	b.ne	81538 <main+0x108>
   81550:	11000421 	add	w1, w1, #0x1
   81554:	7108003f 	cmp	w1, #0x200
   81558:	54fffea1 	b.ne	8152c <main+0xfc>
   8155c:	d5033f9f 	dsb	sy
   81560:	d2971304 	mov	x4, #0xb898                	// #47256
   81564:	f2a7e004 	movk	x4, #0x3f00, lsl #16
   81568:	d2971003 	mov	x3, #0xb880                	// #47232
   8156c:	f2a7e003 	movk	x3, #0x3f00, lsl #16
   81570:	d2860081 	mov	x1, #0x3004                	// #12292
   81574:	f2a7e001 	movk	x1, #0x3f00, lsl #16
   81578:	5289c3e2 	mov	w2, #0x4e1f                	// #19999
   8157c:	b9400080 	ldr	w0, [x4]
   81580:	37f00100 	tbnz	w0, #30, 815a0 <main+0x170>
   81584:	b9400060 	ldr	w0, [x3]
   81588:	b9400025 	ldr	w5, [x1]
   8158c:	b9400020 	ldr	w0, [x1]
   81590:	4b050000 	sub	w0, w0, w5
   81594:	6b02001f 	cmp	w0, w2
   81598:	54ffffa9 	b.ls	8158c <main+0x15c>
   8159c:	17fffff8 	b	8157c <main+0x14c>
   815a0:	d2971700 	mov	x0, #0xb8b8                	// #47288
   815a4:	f2a7e000 	movk	x0, #0x3f00, lsl #16
   815a8:	b9400001 	ldr	w1, [x0]
   815ac:	37ffffe1 	tbnz	w1, #31, 815a8 <main+0x178>
   815b0:	d2971400 	mov	x0, #0xb8a0                	// #47264
   815b4:	f2a7e000 	movk	x0, #0x3f00, lsl #16
   815b8:	52800c21 	mov	w1, #0x61                  	// #97
   815bc:	72b80a01 	movk	w1, #0xc050, lsl #16
   815c0:	d2971303 	mov	x3, #0xb898                	// #47256
   815c4:	f2a7e003 	movk	x3, #0x3f00, lsl #16
   815c8:	d2971002 	mov	x2, #0xb880                	// #47232
   815cc:	f2a7e002 	movk	x2, #0x3f00, lsl #16
   815d0:	b9000001 	str	w1, [x0]
   815d4:	b9400060 	ldr	w0, [x3]
   815d8:	37f7ffe0 	tbnz	w0, #30, 815d4 <main+0x1a4>
   815dc:	b9400040 	ldr	w0, [x2]
   815e0:	12000c00 	and	w0, w0, #0xf
   815e4:	7100041f 	cmp	w0, #0x1
   815e8:	54ffff61 	b.ne	815d4 <main+0x1a4>
   815ec:	52800001 	mov	w1, #0x0                   	// #0
   815f0:	531a6420 	lsl	w0, w1, #6
   815f4:	2a0003e2 	mov	w2, w0
   815f8:	d5087642 	dc	isw, x2
   815fc:	32020002 	orr	w2, w0, #0x40000000
   81600:	2a0203e2 	mov	w2, w2
   81604:	d5087642 	dc	isw, x2
   81608:	32010002 	orr	w2, w0, #0x80000000
   8160c:	2a0203e2 	mov	w2, w2
   81610:	d5087642 	dc	isw, x2
   81614:	32020400 	orr	w0, w0, #0xc0000000
   81618:	2a0003e0 	mov	w0, w0
   8161c:	d5087640 	dc	isw, x0
   81620:	11000421 	add	w1, w1, #0x1
   81624:	7102003f 	cmp	w1, #0x80
   81628:	54fffe41 	b.ne	815f0 <main+0x1c0>
   8162c:	52800001 	mov	w1, #0x0                   	// #0
   81630:	531a6420 	lsl	w0, w1, #6
   81634:	52800002 	mov	w2, #0x0                   	// #0
   81638:	321f0000 	orr	w0, w0, #0x2
   8163c:	2a027003 	orr	w3, w0, w2, lsl #28
   81640:	2a0303e3 	mov	w3, w3
   81644:	d5087643 	dc	isw, x3
   81648:	11000442 	add	w2, w2, #0x1
   8164c:	7100405f 	cmp	w2, #0x10
   81650:	54ffff61 	b.ne	8163c <main+0x20c>
   81654:	11000421 	add	w1, w1, #0x1
   81658:	7108003f 	cmp	w1, #0x200
   8165c:	54fffea1 	b.ne	81630 <main+0x200>
   81660:	d5033fbf 	dmb	sy
   81664:	d2800c00 	mov	x0, #0x60                  	// #96
   81668:	f2a00a00 	movk	x0, #0x50, lsl #16
   8166c:	52a01fe3 	mov	w3, #0xff0000              	// #16711680
   81670:	b9402002 	ldr	w2, [x0,#32]
   81674:	92407442 	and	x2, x2, #0x3fffffff
   81678:	52800004 	mov	w4, #0x0                   	// #0
   8167c:	11417481 	add	w1, w4, #0x5d, lsl #12
   81680:	2a0403e0 	mov	w0, w4
   81684:	11300021 	add	w1, w1, #0xc00
   81688:	b8205843 	str	w3, [x2,w0,uxtw #2]
   8168c:	110c8000 	add	w0, w0, #0x320
   81690:	6b00003f 	cmp	w1, w0
   81694:	54ffffa1 	b.ne	81688 <main+0x258>
   81698:	11000484 	add	w4, w4, #0x1
   8169c:	710c809f 	cmp	w4, #0x320
   816a0:	54fffee1 	b.ne	8167c <main+0x24c>
   816a4:	11000463 	add	w3, w3, #0x1
   816a8:	17fffff4 	b	81678 <main+0x248>
